
obj/kern/kernel:     file format elf64-x86-64


Disassembly of section .bootstrap:

0000000001500000 <_head64>:

.text
.globl _head64
_head64:
    # Disable interrupts.
    cli
 1500000:	fa                   	cli    

    # Save Loader_block pointer from Bootloader.c in r12
    movq %rcx, %r12
 1500001:	49 89 cc             	mov    %rcx,%r12

    # Build an early boot pml4 at pml4phys (physical = virtual for it)

    # Initialize the page tables.
    movq $pml4, %rdi
 1500004:	48 c7 c7 00 10 50 01 	mov    $0x1501000,%rdi
    xorl %eax, %eax
 150000b:	31 c0                	xor    %eax,%eax
    movq $PML_SIZE, %rcx  # moving these many words to the 11 pages
 150000d:	48 c7 c1 00 16 00 00 	mov    $0x1600,%rcx
    rep stosq
 1500014:	f3 48 ab             	rep stos %rax,%es:(%rdi)

    # Creating a 4G boot page table...

    # Setting the 4-level page table with only the second entry needed (PML4)
    movq $pml4, %rdi
 1500017:	48 c7 c7 00 10 50 01 	mov    $0x1501000,%rdi
    movq $(pdpt1 + (PTE_P | PTE_W)), %rax
 150001e:	48 c7 c0 03 20 50 01 	mov    $0x1502003,%rax
    stosq
 1500025:	48 ab                	stos   %rax,%es:(%rdi)
    movq %rax, (%rdi)
 1500027:	48 89 07             	mov    %rax,(%rdi)
    movq $(pdpt2 + (PTE_P | PTE_W)), %rax
 150002a:	48 c7 c0 03 30 50 01 	mov    $0x1503003,%rax
    stosq
 1500031:	48 ab                	stos   %rax,%es:(%rdi)

    # Setting the 3rd level page table (PDPE)
    # 4 entries (counter in ecx), point to the next four physical pages (pgdirs)
    # pgdirs in 0xA0000--0xD000
    movq $pdpt1, %rdi
 1500033:	48 c7 c7 00 20 50 01 	mov    $0x1502000,%rdi
    movq $(pde1 + (PTE_P | PTE_W)), %rax
 150003a:	48 c7 c0 03 40 50 01 	mov    $0x1504003,%rax
    stosq
 1500041:	48 ab                	stos   %rax,%es:(%rdi)

    movq $(pdpt2 + 8), %rdi
 1500043:	48 c7 c7 08 30 50 01 	mov    $0x1503008,%rdi
    movq $(pde2 + (PTE_P | PTE_W)), %rax
 150004a:	48 c7 c0 03 50 50 01 	mov    $0x1505003,%rax
    stosq
 1500051:	48 ab                	stos   %rax,%es:(%rdi)

    # Setting the pgdir so that the LA=PA
    # Mapping first 1024mb of mem at KERN_BASE_ADDR
    movq $-PDP_ENTRY_COUNT, %rcx
 1500053:	48 c7 c1 00 fe ff ff 	mov    $0xfffffffffffffe00,%rcx
    movq $pde1, %rdi
 150005a:	48 c7 c7 00 40 50 01 	mov    $0x1504000,%rdi
    movq $pde2, %rsi
 1500061:	48 c7 c6 00 50 50 01 	mov    $0x1505000,%rsi
    movl $(PTE_P|PTE_W|PTE_MBZ), %eax
 1500068:	b8 83 01 00 00       	mov    $0x183,%eax
1:
    movq %rax, PAGE_SIZE(%rsi,%rcx,8)
 150006d:	48 89 84 ce 00 10 00 	mov    %rax,0x1000(%rsi,%rcx,8)
 1500074:	00 
    movq %rax, PAGE_SIZE(%rdi,%rcx,8)
 1500075:	48 89 84 cf 00 10 00 	mov    %rax,0x1000(%rdi,%rcx,8)
 150007c:	00 
    addq $HUGE_PAGE_SIZE, %rax
 150007d:	48 05 00 00 20 00    	add    $0x200000,%rax
    incq %rcx
 1500083:	48 ff c1             	inc    %rcx
    jnz 1b
 1500086:	75 e5                	jne    150006d <_head64+0x6d>

    # Update CR3 register
    movq $pml4, %rax
 1500088:	48 c7 c0 00 10 50 01 	mov    $0x1501000,%rax
    movq %rax, %cr3
 150008f:	0f 22 d8             	mov    %rax,%cr3

    # Transition to high mem entry code and pass LoadParams address
    movabs $entry, %rax
 1500092:	48 b8 00 00 60 41 80 	movabs $0x8041600000,%rax
 1500099:	00 00 00 
    movq %r12, %rcx
 150009c:	4c 89 e1             	mov    %r12,%rcx
    jmpq *%rax
 150009f:	ff e0                	jmp    *%rax
 15000a1:	66 2e 0f 1f 84 00 00 	cs nopw 0x0(%rax,%rax,1)
 15000a8:	00 00 00 
 15000ab:	66 2e 0f 1f 84 00 00 	cs nopw 0x0(%rax,%rax,1)
 15000b2:	00 00 00 
 15000b5:	66 2e 0f 1f 84 00 00 	cs nopw 0x0(%rax,%rax,1)
 15000bc:	00 00 00 
 15000bf:	66 2e 0f 1f 84 00 00 	cs nopw 0x0(%rax,%rax,1)
 15000c6:	00 00 00 
 15000c9:	66 2e 0f 1f 84 00 00 	cs nopw 0x0(%rax,%rax,1)
 15000d0:	00 00 00 
 15000d3:	66 2e 0f 1f 84 00 00 	cs nopw 0x0(%rax,%rax,1)
 15000da:	00 00 00 
 15000dd:	66 2e 0f 1f 84 00 00 	cs nopw 0x0(%rax,%rax,1)
 15000e4:	00 00 00 
 15000e7:	66 2e 0f 1f 84 00 00 	cs nopw 0x0(%rax,%rax,1)
 15000ee:	00 00 00 
 15000f1:	66 2e 0f 1f 84 00 00 	cs nopw 0x0(%rax,%rax,1)
 15000f8:	00 00 00 
 15000fb:	66 2e 0f 1f 84 00 00 	cs nopw 0x0(%rax,%rax,1)
 1500102:	00 00 00 
 1500105:	66 2e 0f 1f 84 00 00 	cs nopw 0x0(%rax,%rax,1)
 150010c:	00 00 00 
 150010f:	66 2e 0f 1f 84 00 00 	cs nopw 0x0(%rax,%rax,1)
 1500116:	00 00 00 
 1500119:	66 2e 0f 1f 84 00 00 	cs nopw 0x0(%rax,%rax,1)
 1500120:	00 00 00 
 1500123:	66 2e 0f 1f 84 00 00 	cs nopw 0x0(%rax,%rax,1)
 150012a:	00 00 00 
 150012d:	66 2e 0f 1f 84 00 00 	cs nopw 0x0(%rax,%rax,1)
 1500134:	00 00 00 
 1500137:	66 2e 0f 1f 84 00 00 	cs nopw 0x0(%rax,%rax,1)
 150013e:	00 00 00 
 1500141:	66 2e 0f 1f 84 00 00 	cs nopw 0x0(%rax,%rax,1)
 1500148:	00 00 00 
 150014b:	66 2e 0f 1f 84 00 00 	cs nopw 0x0(%rax,%rax,1)
 1500152:	00 00 00 
 1500155:	66 2e 0f 1f 84 00 00 	cs nopw 0x0(%rax,%rax,1)
 150015c:	00 00 00 
 150015f:	66 2e 0f 1f 84 00 00 	cs nopw 0x0(%rax,%rax,1)
 1500166:	00 00 00 
 1500169:	66 2e 0f 1f 84 00 00 	cs nopw 0x0(%rax,%rax,1)
 1500170:	00 00 00 
 1500173:	66 2e 0f 1f 84 00 00 	cs nopw 0x0(%rax,%rax,1)
 150017a:	00 00 00 
 150017d:	66 2e 0f 1f 84 00 00 	cs nopw 0x0(%rax,%rax,1)
 1500184:	00 00 00 
 1500187:	66 2e 0f 1f 84 00 00 	cs nopw 0x0(%rax,%rax,1)
 150018e:	00 00 00 
 1500191:	66 2e 0f 1f 84 00 00 	cs nopw 0x0(%rax,%rax,1)
 1500198:	00 00 00 
 150019b:	66 2e 0f 1f 84 00 00 	cs nopw 0x0(%rax,%rax,1)
 15001a2:	00 00 00 
 15001a5:	66 2e 0f 1f 84 00 00 	cs nopw 0x0(%rax,%rax,1)
 15001ac:	00 00 00 
 15001af:	66 2e 0f 1f 84 00 00 	cs nopw 0x0(%rax,%rax,1)
 15001b6:	00 00 00 
 15001b9:	66 2e 0f 1f 84 00 00 	cs nopw 0x0(%rax,%rax,1)
 15001c0:	00 00 00 
 15001c3:	66 2e 0f 1f 84 00 00 	cs nopw 0x0(%rax,%rax,1)
 15001ca:	00 00 00 
 15001cd:	66 2e 0f 1f 84 00 00 	cs nopw 0x0(%rax,%rax,1)
 15001d4:	00 00 00 
 15001d7:	66 2e 0f 1f 84 00 00 	cs nopw 0x0(%rax,%rax,1)
 15001de:	00 00 00 
 15001e1:	66 2e 0f 1f 84 00 00 	cs nopw 0x0(%rax,%rax,1)
 15001e8:	00 00 00 
 15001eb:	66 2e 0f 1f 84 00 00 	cs nopw 0x0(%rax,%rax,1)
 15001f2:	00 00 00 
 15001f5:	66 2e 0f 1f 84 00 00 	cs nopw 0x0(%rax,%rax,1)
 15001fc:	00 00 00 
 15001ff:	66 2e 0f 1f 84 00 00 	cs nopw 0x0(%rax,%rax,1)
 1500206:	00 00 00 
 1500209:	66 2e 0f 1f 84 00 00 	cs nopw 0x0(%rax,%rax,1)
 1500210:	00 00 00 
 1500213:	66 2e 0f 1f 84 00 00 	cs nopw 0x0(%rax,%rax,1)
 150021a:	00 00 00 
 150021d:	66 2e 0f 1f 84 00 00 	cs nopw 0x0(%rax,%rax,1)
 1500224:	00 00 00 
 1500227:	66 2e 0f 1f 84 00 00 	cs nopw 0x0(%rax,%rax,1)
 150022e:	00 00 00 
 1500231:	66 2e 0f 1f 84 00 00 	cs nopw 0x0(%rax,%rax,1)
 1500238:	00 00 00 
 150023b:	66 2e 0f 1f 84 00 00 	cs nopw 0x0(%rax,%rax,1)
 1500242:	00 00 00 
 1500245:	66 2e 0f 1f 84 00 00 	cs nopw 0x0(%rax,%rax,1)
 150024c:	00 00 00 
 150024f:	66 2e 0f 1f 84 00 00 	cs nopw 0x0(%rax,%rax,1)
 1500256:	00 00 00 
 1500259:	66 2e 0f 1f 84 00 00 	cs nopw 0x0(%rax,%rax,1)
 1500260:	00 00 00 
 1500263:	66 2e 0f 1f 84 00 00 	cs nopw 0x0(%rax,%rax,1)
 150026a:	00 00 00 
 150026d:	66 2e 0f 1f 84 00 00 	cs nopw 0x0(%rax,%rax,1)
 1500274:	00 00 00 
 1500277:	66 2e 0f 1f 84 00 00 	cs nopw 0x0(%rax,%rax,1)
 150027e:	00 00 00 
 1500281:	66 2e 0f 1f 84 00 00 	cs nopw 0x0(%rax,%rax,1)
 1500288:	00 00 00 
 150028b:	66 2e 0f 1f 84 00 00 	cs nopw 0x0(%rax,%rax,1)
 1500292:	00 00 00 
 1500295:	66 2e 0f 1f 84 00 00 	cs nopw 0x0(%rax,%rax,1)
 150029c:	00 00 00 
 150029f:	66 2e 0f 1f 84 00 00 	cs nopw 0x0(%rax,%rax,1)
 15002a6:	00 00 00 
 15002a9:	66 2e 0f 1f 84 00 00 	cs nopw 0x0(%rax,%rax,1)
 15002b0:	00 00 00 
 15002b3:	66 2e 0f 1f 84 00 00 	cs nopw 0x0(%rax,%rax,1)
 15002ba:	00 00 00 
 15002bd:	66 2e 0f 1f 84 00 00 	cs nopw 0x0(%rax,%rax,1)
 15002c4:	00 00 00 
 15002c7:	66 2e 0f 1f 84 00 00 	cs nopw 0x0(%rax,%rax,1)
 15002ce:	00 00 00 
 15002d1:	66 2e 0f 1f 84 00 00 	cs nopw 0x0(%rax,%rax,1)
 15002d8:	00 00 00 
 15002db:	66 2e 0f 1f 84 00 00 	cs nopw 0x0(%rax,%rax,1)
 15002e2:	00 00 00 
 15002e5:	66 2e 0f 1f 84 00 00 	cs nopw 0x0(%rax,%rax,1)
 15002ec:	00 00 00 
 15002ef:	66 2e 0f 1f 84 00 00 	cs nopw 0x0(%rax,%rax,1)
 15002f6:	00 00 00 
 15002f9:	66 2e 0f 1f 84 00 00 	cs nopw 0x0(%rax,%rax,1)
 1500300:	00 00 00 
 1500303:	66 2e 0f 1f 84 00 00 	cs nopw 0x0(%rax,%rax,1)
 150030a:	00 00 00 
 150030d:	66 2e 0f 1f 84 00 00 	cs nopw 0x0(%rax,%rax,1)
 1500314:	00 00 00 
 1500317:	66 2e 0f 1f 84 00 00 	cs nopw 0x0(%rax,%rax,1)
 150031e:	00 00 00 
 1500321:	66 2e 0f 1f 84 00 00 	cs nopw 0x0(%rax,%rax,1)
 1500328:	00 00 00 
 150032b:	66 2e 0f 1f 84 00 00 	cs nopw 0x0(%rax,%rax,1)
 1500332:	00 00 00 
 1500335:	66 2e 0f 1f 84 00 00 	cs nopw 0x0(%rax,%rax,1)
 150033c:	00 00 00 
 150033f:	66 2e 0f 1f 84 00 00 	cs nopw 0x0(%rax,%rax,1)
 1500346:	00 00 00 
 1500349:	66 2e 0f 1f 84 00 00 	cs nopw 0x0(%rax,%rax,1)
 1500350:	00 00 00 
 1500353:	66 2e 0f 1f 84 00 00 	cs nopw 0x0(%rax,%rax,1)
 150035a:	00 00 00 
 150035d:	66 2e 0f 1f 84 00 00 	cs nopw 0x0(%rax,%rax,1)
 1500364:	00 00 00 
 1500367:	66 2e 0f 1f 84 00 00 	cs nopw 0x0(%rax,%rax,1)
 150036e:	00 00 00 
 1500371:	66 2e 0f 1f 84 00 00 	cs nopw 0x0(%rax,%rax,1)
 1500378:	00 00 00 
 150037b:	66 2e 0f 1f 84 00 00 	cs nopw 0x0(%rax,%rax,1)
 1500382:	00 00 00 
 1500385:	66 2e 0f 1f 84 00 00 	cs nopw 0x0(%rax,%rax,1)
 150038c:	00 00 00 
 150038f:	66 2e 0f 1f 84 00 00 	cs nopw 0x0(%rax,%rax,1)
 1500396:	00 00 00 
 1500399:	66 2e 0f 1f 84 00 00 	cs nopw 0x0(%rax,%rax,1)
 15003a0:	00 00 00 
 15003a3:	66 2e 0f 1f 84 00 00 	cs nopw 0x0(%rax,%rax,1)
 15003aa:	00 00 00 
 15003ad:	66 2e 0f 1f 84 00 00 	cs nopw 0x0(%rax,%rax,1)
 15003b4:	00 00 00 
 15003b7:	66 2e 0f 1f 84 00 00 	cs nopw 0x0(%rax,%rax,1)
 15003be:	00 00 00 
 15003c1:	66 2e 0f 1f 84 00 00 	cs nopw 0x0(%rax,%rax,1)
 15003c8:	00 00 00 
 15003cb:	66 2e 0f 1f 84 00 00 	cs nopw 0x0(%rax,%rax,1)
 15003d2:	00 00 00 
 15003d5:	66 2e 0f 1f 84 00 00 	cs nopw 0x0(%rax,%rax,1)
 15003dc:	00 00 00 
 15003df:	66 2e 0f 1f 84 00 00 	cs nopw 0x0(%rax,%rax,1)
 15003e6:	00 00 00 
 15003e9:	66 2e 0f 1f 84 00 00 	cs nopw 0x0(%rax,%rax,1)
 15003f0:	00 00 00 
 15003f3:	66 2e 0f 1f 84 00 00 	cs nopw 0x0(%rax,%rax,1)
 15003fa:	00 00 00 
 15003fd:	66 2e 0f 1f 84 00 00 	cs nopw 0x0(%rax,%rax,1)
 1500404:	00 00 00 
 1500407:	66 2e 0f 1f 84 00 00 	cs nopw 0x0(%rax,%rax,1)
 150040e:	00 00 00 
 1500411:	66 2e 0f 1f 84 00 00 	cs nopw 0x0(%rax,%rax,1)
 1500418:	00 00 00 
 150041b:	66 2e 0f 1f 84 00 00 	cs nopw 0x0(%rax,%rax,1)
 1500422:	00 00 00 
 1500425:	66 2e 0f 1f 84 00 00 	cs nopw 0x0(%rax,%rax,1)
 150042c:	00 00 00 
 150042f:	66 2e 0f 1f 84 00 00 	cs nopw 0x0(%rax,%rax,1)
 1500436:	00 00 00 
 1500439:	66 2e 0f 1f 84 00 00 	cs nopw 0x0(%rax,%rax,1)
 1500440:	00 00 00 
 1500443:	66 2e 0f 1f 84 00 00 	cs nopw 0x0(%rax,%rax,1)
 150044a:	00 00 00 
 150044d:	66 2e 0f 1f 84 00 00 	cs nopw 0x0(%rax,%rax,1)
 1500454:	00 00 00 
 1500457:	66 2e 0f 1f 84 00 00 	cs nopw 0x0(%rax,%rax,1)
 150045e:	00 00 00 
 1500461:	66 2e 0f 1f 84 00 00 	cs nopw 0x0(%rax,%rax,1)
 1500468:	00 00 00 
 150046b:	66 2e 0f 1f 84 00 00 	cs nopw 0x0(%rax,%rax,1)
 1500472:	00 00 00 
 1500475:	66 2e 0f 1f 84 00 00 	cs nopw 0x0(%rax,%rax,1)
 150047c:	00 00 00 
 150047f:	66 2e 0f 1f 84 00 00 	cs nopw 0x0(%rax,%rax,1)
 1500486:	00 00 00 
 1500489:	66 2e 0f 1f 84 00 00 	cs nopw 0x0(%rax,%rax,1)
 1500490:	00 00 00 
 1500493:	66 2e 0f 1f 84 00 00 	cs nopw 0x0(%rax,%rax,1)
 150049a:	00 00 00 
 150049d:	66 2e 0f 1f 84 00 00 	cs nopw 0x0(%rax,%rax,1)
 15004a4:	00 00 00 
 15004a7:	66 2e 0f 1f 84 00 00 	cs nopw 0x0(%rax,%rax,1)
 15004ae:	00 00 00 
 15004b1:	66 2e 0f 1f 84 00 00 	cs nopw 0x0(%rax,%rax,1)
 15004b8:	00 00 00 
 15004bb:	66 2e 0f 1f 84 00 00 	cs nopw 0x0(%rax,%rax,1)
 15004c2:	00 00 00 
 15004c5:	66 2e 0f 1f 84 00 00 	cs nopw 0x0(%rax,%rax,1)
 15004cc:	00 00 00 
 15004cf:	66 2e 0f 1f 84 00 00 	cs nopw 0x0(%rax,%rax,1)
 15004d6:	00 00 00 
 15004d9:	66 2e 0f 1f 84 00 00 	cs nopw 0x0(%rax,%rax,1)
 15004e0:	00 00 00 
 15004e3:	66 2e 0f 1f 84 00 00 	cs nopw 0x0(%rax,%rax,1)
 15004ea:	00 00 00 
 15004ed:	66 2e 0f 1f 84 00 00 	cs nopw 0x0(%rax,%rax,1)
 15004f4:	00 00 00 
 15004f7:	66 2e 0f 1f 84 00 00 	cs nopw 0x0(%rax,%rax,1)
 15004fe:	00 00 00 
 1500501:	66 2e 0f 1f 84 00 00 	cs nopw 0x0(%rax,%rax,1)
 1500508:	00 00 00 
 150050b:	66 2e 0f 1f 84 00 00 	cs nopw 0x0(%rax,%rax,1)
 1500512:	00 00 00 
 1500515:	66 2e 0f 1f 84 00 00 	cs nopw 0x0(%rax,%rax,1)
 150051c:	00 00 00 
 150051f:	66 2e 0f 1f 84 00 00 	cs nopw 0x0(%rax,%rax,1)
 1500526:	00 00 00 
 1500529:	66 2e 0f 1f 84 00 00 	cs nopw 0x0(%rax,%rax,1)
 1500530:	00 00 00 
 1500533:	66 2e 0f 1f 84 00 00 	cs nopw 0x0(%rax,%rax,1)
 150053a:	00 00 00 
 150053d:	66 2e 0f 1f 84 00 00 	cs nopw 0x0(%rax,%rax,1)
 1500544:	00 00 00 
 1500547:	66 2e 0f 1f 84 00 00 	cs nopw 0x0(%rax,%rax,1)
 150054e:	00 00 00 
 1500551:	66 2e 0f 1f 84 00 00 	cs nopw 0x0(%rax,%rax,1)
 1500558:	00 00 00 
 150055b:	66 2e 0f 1f 84 00 00 	cs nopw 0x0(%rax,%rax,1)
 1500562:	00 00 00 
 1500565:	66 2e 0f 1f 84 00 00 	cs nopw 0x0(%rax,%rax,1)
 150056c:	00 00 00 
 150056f:	66 2e 0f 1f 84 00 00 	cs nopw 0x0(%rax,%rax,1)
 1500576:	00 00 00 
 1500579:	66 2e 0f 1f 84 00 00 	cs nopw 0x0(%rax,%rax,1)
 1500580:	00 00 00 
 1500583:	66 2e 0f 1f 84 00 00 	cs nopw 0x0(%rax,%rax,1)
 150058a:	00 00 00 
 150058d:	66 2e 0f 1f 84 00 00 	cs nopw 0x0(%rax,%rax,1)
 1500594:	00 00 00 
 1500597:	66 2e 0f 1f 84 00 00 	cs nopw 0x0(%rax,%rax,1)
 150059e:	00 00 00 
 15005a1:	66 2e 0f 1f 84 00 00 	cs nopw 0x0(%rax,%rax,1)
 15005a8:	00 00 00 
 15005ab:	66 2e 0f 1f 84 00 00 	cs nopw 0x0(%rax,%rax,1)
 15005b2:	00 00 00 
 15005b5:	66 2e 0f 1f 84 00 00 	cs nopw 0x0(%rax,%rax,1)
 15005bc:	00 00 00 
 15005bf:	66 2e 0f 1f 84 00 00 	cs nopw 0x0(%rax,%rax,1)
 15005c6:	00 00 00 
 15005c9:	66 2e 0f 1f 84 00 00 	cs nopw 0x0(%rax,%rax,1)
 15005d0:	00 00 00 
 15005d3:	66 2e 0f 1f 84 00 00 	cs nopw 0x0(%rax,%rax,1)
 15005da:	00 00 00 
 15005dd:	66 2e 0f 1f 84 00 00 	cs nopw 0x0(%rax,%rax,1)
 15005e4:	00 00 00 
 15005e7:	66 2e 0f 1f 84 00 00 	cs nopw 0x0(%rax,%rax,1)
 15005ee:	00 00 00 
 15005f1:	66 2e 0f 1f 84 00 00 	cs nopw 0x0(%rax,%rax,1)
 15005f8:	00 00 00 
 15005fb:	66 2e 0f 1f 84 00 00 	cs nopw 0x0(%rax,%rax,1)
 1500602:	00 00 00 
 1500605:	66 2e 0f 1f 84 00 00 	cs nopw 0x0(%rax,%rax,1)
 150060c:	00 00 00 
 150060f:	66 2e 0f 1f 84 00 00 	cs nopw 0x0(%rax,%rax,1)
 1500616:	00 00 00 
 1500619:	66 2e 0f 1f 84 00 00 	cs nopw 0x0(%rax,%rax,1)
 1500620:	00 00 00 
 1500623:	66 2e 0f 1f 84 00 00 	cs nopw 0x0(%rax,%rax,1)
 150062a:	00 00 00 
 150062d:	66 2e 0f 1f 84 00 00 	cs nopw 0x0(%rax,%rax,1)
 1500634:	00 00 00 
 1500637:	66 2e 0f 1f 84 00 00 	cs nopw 0x0(%rax,%rax,1)
 150063e:	00 00 00 
 1500641:	66 2e 0f 1f 84 00 00 	cs nopw 0x0(%rax,%rax,1)
 1500648:	00 00 00 
 150064b:	66 2e 0f 1f 84 00 00 	cs nopw 0x0(%rax,%rax,1)
 1500652:	00 00 00 
 1500655:	66 2e 0f 1f 84 00 00 	cs nopw 0x0(%rax,%rax,1)
 150065c:	00 00 00 
 150065f:	66 2e 0f 1f 84 00 00 	cs nopw 0x0(%rax,%rax,1)
 1500666:	00 00 00 
 1500669:	66 2e 0f 1f 84 00 00 	cs nopw 0x0(%rax,%rax,1)
 1500670:	00 00 00 
 1500673:	66 2e 0f 1f 84 00 00 	cs nopw 0x0(%rax,%rax,1)
 150067a:	00 00 00 
 150067d:	66 2e 0f 1f 84 00 00 	cs nopw 0x0(%rax,%rax,1)
 1500684:	00 00 00 
 1500687:	66 2e 0f 1f 84 00 00 	cs nopw 0x0(%rax,%rax,1)
 150068e:	00 00 00 
 1500691:	66 2e 0f 1f 84 00 00 	cs nopw 0x0(%rax,%rax,1)
 1500698:	00 00 00 
 150069b:	66 2e 0f 1f 84 00 00 	cs nopw 0x0(%rax,%rax,1)
 15006a2:	00 00 00 
 15006a5:	66 2e 0f 1f 84 00 00 	cs nopw 0x0(%rax,%rax,1)
 15006ac:	00 00 00 
 15006af:	66 2e 0f 1f 84 00 00 	cs nopw 0x0(%rax,%rax,1)
 15006b6:	00 00 00 
 15006b9:	66 2e 0f 1f 84 00 00 	cs nopw 0x0(%rax,%rax,1)
 15006c0:	00 00 00 
 15006c3:	66 2e 0f 1f 84 00 00 	cs nopw 0x0(%rax,%rax,1)
 15006ca:	00 00 00 
 15006cd:	66 2e 0f 1f 84 00 00 	cs nopw 0x0(%rax,%rax,1)
 15006d4:	00 00 00 
 15006d7:	66 2e 0f 1f 84 00 00 	cs nopw 0x0(%rax,%rax,1)
 15006de:	00 00 00 
 15006e1:	66 2e 0f 1f 84 00 00 	cs nopw 0x0(%rax,%rax,1)
 15006e8:	00 00 00 
 15006eb:	66 2e 0f 1f 84 00 00 	cs nopw 0x0(%rax,%rax,1)
 15006f2:	00 00 00 
 15006f5:	66 2e 0f 1f 84 00 00 	cs nopw 0x0(%rax,%rax,1)
 15006fc:	00 00 00 
 15006ff:	66 2e 0f 1f 84 00 00 	cs nopw 0x0(%rax,%rax,1)
 1500706:	00 00 00 
 1500709:	66 2e 0f 1f 84 00 00 	cs nopw 0x0(%rax,%rax,1)
 1500710:	00 00 00 
 1500713:	66 2e 0f 1f 84 00 00 	cs nopw 0x0(%rax,%rax,1)
 150071a:	00 00 00 
 150071d:	66 2e 0f 1f 84 00 00 	cs nopw 0x0(%rax,%rax,1)
 1500724:	00 00 00 
 1500727:	66 2e 0f 1f 84 00 00 	cs nopw 0x0(%rax,%rax,1)
 150072e:	00 00 00 
 1500731:	66 2e 0f 1f 84 00 00 	cs nopw 0x0(%rax,%rax,1)
 1500738:	00 00 00 
 150073b:	66 2e 0f 1f 84 00 00 	cs nopw 0x0(%rax,%rax,1)
 1500742:	00 00 00 
 1500745:	66 2e 0f 1f 84 00 00 	cs nopw 0x0(%rax,%rax,1)
 150074c:	00 00 00 
 150074f:	66 2e 0f 1f 84 00 00 	cs nopw 0x0(%rax,%rax,1)
 1500756:	00 00 00 
 1500759:	66 2e 0f 1f 84 00 00 	cs nopw 0x0(%rax,%rax,1)
 1500760:	00 00 00 
 1500763:	66 2e 0f 1f 84 00 00 	cs nopw 0x0(%rax,%rax,1)
 150076a:	00 00 00 
 150076d:	66 2e 0f 1f 84 00 00 	cs nopw 0x0(%rax,%rax,1)
 1500774:	00 00 00 
 1500777:	66 2e 0f 1f 84 00 00 	cs nopw 0x0(%rax,%rax,1)
 150077e:	00 00 00 
 1500781:	66 2e 0f 1f 84 00 00 	cs nopw 0x0(%rax,%rax,1)
 1500788:	00 00 00 
 150078b:	66 2e 0f 1f 84 00 00 	cs nopw 0x0(%rax,%rax,1)
 1500792:	00 00 00 
 1500795:	66 2e 0f 1f 84 00 00 	cs nopw 0x0(%rax,%rax,1)
 150079c:	00 00 00 
 150079f:	66 2e 0f 1f 84 00 00 	cs nopw 0x0(%rax,%rax,1)
 15007a6:	00 00 00 
 15007a9:	66 2e 0f 1f 84 00 00 	cs nopw 0x0(%rax,%rax,1)
 15007b0:	00 00 00 
 15007b3:	66 2e 0f 1f 84 00 00 	cs nopw 0x0(%rax,%rax,1)
 15007ba:	00 00 00 
 15007bd:	66 2e 0f 1f 84 00 00 	cs nopw 0x0(%rax,%rax,1)
 15007c4:	00 00 00 
 15007c7:	66 2e 0f 1f 84 00 00 	cs nopw 0x0(%rax,%rax,1)
 15007ce:	00 00 00 
 15007d1:	66 2e 0f 1f 84 00 00 	cs nopw 0x0(%rax,%rax,1)
 15007d8:	00 00 00 
 15007db:	66 2e 0f 1f 84 00 00 	cs nopw 0x0(%rax,%rax,1)
 15007e2:	00 00 00 
 15007e5:	66 2e 0f 1f 84 00 00 	cs nopw 0x0(%rax,%rax,1)
 15007ec:	00 00 00 
 15007ef:	66 2e 0f 1f 84 00 00 	cs nopw 0x0(%rax,%rax,1)
 15007f6:	00 00 00 
 15007f9:	66 2e 0f 1f 84 00 00 	cs nopw 0x0(%rax,%rax,1)
 1500800:	00 00 00 
 1500803:	66 2e 0f 1f 84 00 00 	cs nopw 0x0(%rax,%rax,1)
 150080a:	00 00 00 
 150080d:	66 2e 0f 1f 84 00 00 	cs nopw 0x0(%rax,%rax,1)
 1500814:	00 00 00 
 1500817:	66 2e 0f 1f 84 00 00 	cs nopw 0x0(%rax,%rax,1)
 150081e:	00 00 00 
 1500821:	66 2e 0f 1f 84 00 00 	cs nopw 0x0(%rax,%rax,1)
 1500828:	00 00 00 
 150082b:	66 2e 0f 1f 84 00 00 	cs nopw 0x0(%rax,%rax,1)
 1500832:	00 00 00 
 1500835:	66 2e 0f 1f 84 00 00 	cs nopw 0x0(%rax,%rax,1)
 150083c:	00 00 00 
 150083f:	66 2e 0f 1f 84 00 00 	cs nopw 0x0(%rax,%rax,1)
 1500846:	00 00 00 
 1500849:	66 2e 0f 1f 84 00 00 	cs nopw 0x0(%rax,%rax,1)
 1500850:	00 00 00 
 1500853:	66 2e 0f 1f 84 00 00 	cs nopw 0x0(%rax,%rax,1)
 150085a:	00 00 00 
 150085d:	66 2e 0f 1f 84 00 00 	cs nopw 0x0(%rax,%rax,1)
 1500864:	00 00 00 
 1500867:	66 2e 0f 1f 84 00 00 	cs nopw 0x0(%rax,%rax,1)
 150086e:	00 00 00 
 1500871:	66 2e 0f 1f 84 00 00 	cs nopw 0x0(%rax,%rax,1)
 1500878:	00 00 00 
 150087b:	66 2e 0f 1f 84 00 00 	cs nopw 0x0(%rax,%rax,1)
 1500882:	00 00 00 
 1500885:	66 2e 0f 1f 84 00 00 	cs nopw 0x0(%rax,%rax,1)
 150088c:	00 00 00 
 150088f:	66 2e 0f 1f 84 00 00 	cs nopw 0x0(%rax,%rax,1)
 1500896:	00 00 00 
 1500899:	66 2e 0f 1f 84 00 00 	cs nopw 0x0(%rax,%rax,1)
 15008a0:	00 00 00 
 15008a3:	66 2e 0f 1f 84 00 00 	cs nopw 0x0(%rax,%rax,1)
 15008aa:	00 00 00 
 15008ad:	66 2e 0f 1f 84 00 00 	cs nopw 0x0(%rax,%rax,1)
 15008b4:	00 00 00 
 15008b7:	66 2e 0f 1f 84 00 00 	cs nopw 0x0(%rax,%rax,1)
 15008be:	00 00 00 
 15008c1:	66 2e 0f 1f 84 00 00 	cs nopw 0x0(%rax,%rax,1)
 15008c8:	00 00 00 
 15008cb:	66 2e 0f 1f 84 00 00 	cs nopw 0x0(%rax,%rax,1)
 15008d2:	00 00 00 
 15008d5:	66 2e 0f 1f 84 00 00 	cs nopw 0x0(%rax,%rax,1)
 15008dc:	00 00 00 
 15008df:	66 2e 0f 1f 84 00 00 	cs nopw 0x0(%rax,%rax,1)
 15008e6:	00 00 00 
 15008e9:	66 2e 0f 1f 84 00 00 	cs nopw 0x0(%rax,%rax,1)
 15008f0:	00 00 00 
 15008f3:	66 2e 0f 1f 84 00 00 	cs nopw 0x0(%rax,%rax,1)
 15008fa:	00 00 00 
 15008fd:	66 2e 0f 1f 84 00 00 	cs nopw 0x0(%rax,%rax,1)
 1500904:	00 00 00 
 1500907:	66 2e 0f 1f 84 00 00 	cs nopw 0x0(%rax,%rax,1)
 150090e:	00 00 00 
 1500911:	66 2e 0f 1f 84 00 00 	cs nopw 0x0(%rax,%rax,1)
 1500918:	00 00 00 
 150091b:	66 2e 0f 1f 84 00 00 	cs nopw 0x0(%rax,%rax,1)
 1500922:	00 00 00 
 1500925:	66 2e 0f 1f 84 00 00 	cs nopw 0x0(%rax,%rax,1)
 150092c:	00 00 00 
 150092f:	66 2e 0f 1f 84 00 00 	cs nopw 0x0(%rax,%rax,1)
 1500936:	00 00 00 
 1500939:	66 2e 0f 1f 84 00 00 	cs nopw 0x0(%rax,%rax,1)
 1500940:	00 00 00 
 1500943:	66 2e 0f 1f 84 00 00 	cs nopw 0x0(%rax,%rax,1)
 150094a:	00 00 00 
 150094d:	66 2e 0f 1f 84 00 00 	cs nopw 0x0(%rax,%rax,1)
 1500954:	00 00 00 
 1500957:	66 2e 0f 1f 84 00 00 	cs nopw 0x0(%rax,%rax,1)
 150095e:	00 00 00 
 1500961:	66 2e 0f 1f 84 00 00 	cs nopw 0x0(%rax,%rax,1)
 1500968:	00 00 00 
 150096b:	66 2e 0f 1f 84 00 00 	cs nopw 0x0(%rax,%rax,1)
 1500972:	00 00 00 
 1500975:	66 2e 0f 1f 84 00 00 	cs nopw 0x0(%rax,%rax,1)
 150097c:	00 00 00 
 150097f:	66 2e 0f 1f 84 00 00 	cs nopw 0x0(%rax,%rax,1)
 1500986:	00 00 00 
 1500989:	66 2e 0f 1f 84 00 00 	cs nopw 0x0(%rax,%rax,1)
 1500990:	00 00 00 
 1500993:	66 2e 0f 1f 84 00 00 	cs nopw 0x0(%rax,%rax,1)
 150099a:	00 00 00 
 150099d:	66 2e 0f 1f 84 00 00 	cs nopw 0x0(%rax,%rax,1)
 15009a4:	00 00 00 
 15009a7:	66 2e 0f 1f 84 00 00 	cs nopw 0x0(%rax,%rax,1)
 15009ae:	00 00 00 
 15009b1:	66 2e 0f 1f 84 00 00 	cs nopw 0x0(%rax,%rax,1)
 15009b8:	00 00 00 
 15009bb:	66 2e 0f 1f 84 00 00 	cs nopw 0x0(%rax,%rax,1)
 15009c2:	00 00 00 
 15009c5:	66 2e 0f 1f 84 00 00 	cs nopw 0x0(%rax,%rax,1)
 15009cc:	00 00 00 
 15009cf:	66 2e 0f 1f 84 00 00 	cs nopw 0x0(%rax,%rax,1)
 15009d6:	00 00 00 
 15009d9:	66 2e 0f 1f 84 00 00 	cs nopw 0x0(%rax,%rax,1)
 15009e0:	00 00 00 
 15009e3:	66 2e 0f 1f 84 00 00 	cs nopw 0x0(%rax,%rax,1)
 15009ea:	00 00 00 
 15009ed:	66 2e 0f 1f 84 00 00 	cs nopw 0x0(%rax,%rax,1)
 15009f4:	00 00 00 
 15009f7:	66 2e 0f 1f 84 00 00 	cs nopw 0x0(%rax,%rax,1)
 15009fe:	00 00 00 
 1500a01:	66 2e 0f 1f 84 00 00 	cs nopw 0x0(%rax,%rax,1)
 1500a08:	00 00 00 
 1500a0b:	66 2e 0f 1f 84 00 00 	cs nopw 0x0(%rax,%rax,1)
 1500a12:	00 00 00 
 1500a15:	66 2e 0f 1f 84 00 00 	cs nopw 0x0(%rax,%rax,1)
 1500a1c:	00 00 00 
 1500a1f:	66 2e 0f 1f 84 00 00 	cs nopw 0x0(%rax,%rax,1)
 1500a26:	00 00 00 
 1500a29:	66 2e 0f 1f 84 00 00 	cs nopw 0x0(%rax,%rax,1)
 1500a30:	00 00 00 
 1500a33:	66 2e 0f 1f 84 00 00 	cs nopw 0x0(%rax,%rax,1)
 1500a3a:	00 00 00 
 1500a3d:	66 2e 0f 1f 84 00 00 	cs nopw 0x0(%rax,%rax,1)
 1500a44:	00 00 00 
 1500a47:	66 2e 0f 1f 84 00 00 	cs nopw 0x0(%rax,%rax,1)
 1500a4e:	00 00 00 
 1500a51:	66 2e 0f 1f 84 00 00 	cs nopw 0x0(%rax,%rax,1)
 1500a58:	00 00 00 
 1500a5b:	66 2e 0f 1f 84 00 00 	cs nopw 0x0(%rax,%rax,1)
 1500a62:	00 00 00 
 1500a65:	66 2e 0f 1f 84 00 00 	cs nopw 0x0(%rax,%rax,1)
 1500a6c:	00 00 00 
 1500a6f:	66 2e 0f 1f 84 00 00 	cs nopw 0x0(%rax,%rax,1)
 1500a76:	00 00 00 
 1500a79:	66 2e 0f 1f 84 00 00 	cs nopw 0x0(%rax,%rax,1)
 1500a80:	00 00 00 
 1500a83:	66 2e 0f 1f 84 00 00 	cs nopw 0x0(%rax,%rax,1)
 1500a8a:	00 00 00 
 1500a8d:	66 2e 0f 1f 84 00 00 	cs nopw 0x0(%rax,%rax,1)
 1500a94:	00 00 00 
 1500a97:	66 2e 0f 1f 84 00 00 	cs nopw 0x0(%rax,%rax,1)
 1500a9e:	00 00 00 
 1500aa1:	66 2e 0f 1f 84 00 00 	cs nopw 0x0(%rax,%rax,1)
 1500aa8:	00 00 00 
 1500aab:	66 2e 0f 1f 84 00 00 	cs nopw 0x0(%rax,%rax,1)
 1500ab2:	00 00 00 
 1500ab5:	66 2e 0f 1f 84 00 00 	cs nopw 0x0(%rax,%rax,1)
 1500abc:	00 00 00 
 1500abf:	66 2e 0f 1f 84 00 00 	cs nopw 0x0(%rax,%rax,1)
 1500ac6:	00 00 00 
 1500ac9:	66 2e 0f 1f 84 00 00 	cs nopw 0x0(%rax,%rax,1)
 1500ad0:	00 00 00 
 1500ad3:	66 2e 0f 1f 84 00 00 	cs nopw 0x0(%rax,%rax,1)
 1500ada:	00 00 00 
 1500add:	66 2e 0f 1f 84 00 00 	cs nopw 0x0(%rax,%rax,1)
 1500ae4:	00 00 00 
 1500ae7:	66 2e 0f 1f 84 00 00 	cs nopw 0x0(%rax,%rax,1)
 1500aee:	00 00 00 
 1500af1:	66 2e 0f 1f 84 00 00 	cs nopw 0x0(%rax,%rax,1)
 1500af8:	00 00 00 
 1500afb:	66 2e 0f 1f 84 00 00 	cs nopw 0x0(%rax,%rax,1)
 1500b02:	00 00 00 
 1500b05:	66 2e 0f 1f 84 00 00 	cs nopw 0x0(%rax,%rax,1)
 1500b0c:	00 00 00 
 1500b0f:	66 2e 0f 1f 84 00 00 	cs nopw 0x0(%rax,%rax,1)
 1500b16:	00 00 00 
 1500b19:	66 2e 0f 1f 84 00 00 	cs nopw 0x0(%rax,%rax,1)
 1500b20:	00 00 00 
 1500b23:	66 2e 0f 1f 84 00 00 	cs nopw 0x0(%rax,%rax,1)
 1500b2a:	00 00 00 
 1500b2d:	66 2e 0f 1f 84 00 00 	cs nopw 0x0(%rax,%rax,1)
 1500b34:	00 00 00 
 1500b37:	66 2e 0f 1f 84 00 00 	cs nopw 0x0(%rax,%rax,1)
 1500b3e:	00 00 00 
 1500b41:	66 2e 0f 1f 84 00 00 	cs nopw 0x0(%rax,%rax,1)
 1500b48:	00 00 00 
 1500b4b:	66 2e 0f 1f 84 00 00 	cs nopw 0x0(%rax,%rax,1)
 1500b52:	00 00 00 
 1500b55:	66 2e 0f 1f 84 00 00 	cs nopw 0x0(%rax,%rax,1)
 1500b5c:	00 00 00 
 1500b5f:	66 2e 0f 1f 84 00 00 	cs nopw 0x0(%rax,%rax,1)
 1500b66:	00 00 00 
 1500b69:	66 2e 0f 1f 84 00 00 	cs nopw 0x0(%rax,%rax,1)
 1500b70:	00 00 00 
 1500b73:	66 2e 0f 1f 84 00 00 	cs nopw 0x0(%rax,%rax,1)
 1500b7a:	00 00 00 
 1500b7d:	66 2e 0f 1f 84 00 00 	cs nopw 0x0(%rax,%rax,1)
 1500b84:	00 00 00 
 1500b87:	66 2e 0f 1f 84 00 00 	cs nopw 0x0(%rax,%rax,1)
 1500b8e:	00 00 00 
 1500b91:	66 2e 0f 1f 84 00 00 	cs nopw 0x0(%rax,%rax,1)
 1500b98:	00 00 00 
 1500b9b:	66 2e 0f 1f 84 00 00 	cs nopw 0x0(%rax,%rax,1)
 1500ba2:	00 00 00 
 1500ba5:	66 2e 0f 1f 84 00 00 	cs nopw 0x0(%rax,%rax,1)
 1500bac:	00 00 00 
 1500baf:	66 2e 0f 1f 84 00 00 	cs nopw 0x0(%rax,%rax,1)
 1500bb6:	00 00 00 
 1500bb9:	66 2e 0f 1f 84 00 00 	cs nopw 0x0(%rax,%rax,1)
 1500bc0:	00 00 00 
 1500bc3:	66 2e 0f 1f 84 00 00 	cs nopw 0x0(%rax,%rax,1)
 1500bca:	00 00 00 
 1500bcd:	66 2e 0f 1f 84 00 00 	cs nopw 0x0(%rax,%rax,1)
 1500bd4:	00 00 00 
 1500bd7:	66 2e 0f 1f 84 00 00 	cs nopw 0x0(%rax,%rax,1)
 1500bde:	00 00 00 
 1500be1:	66 2e 0f 1f 84 00 00 	cs nopw 0x0(%rax,%rax,1)
 1500be8:	00 00 00 
 1500beb:	66 2e 0f 1f 84 00 00 	cs nopw 0x0(%rax,%rax,1)
 1500bf2:	00 00 00 
 1500bf5:	66 2e 0f 1f 84 00 00 	cs nopw 0x0(%rax,%rax,1)
 1500bfc:	00 00 00 
 1500bff:	66 2e 0f 1f 84 00 00 	cs nopw 0x0(%rax,%rax,1)
 1500c06:	00 00 00 
 1500c09:	66 2e 0f 1f 84 00 00 	cs nopw 0x0(%rax,%rax,1)
 1500c10:	00 00 00 
 1500c13:	66 2e 0f 1f 84 00 00 	cs nopw 0x0(%rax,%rax,1)
 1500c1a:	00 00 00 
 1500c1d:	66 2e 0f 1f 84 00 00 	cs nopw 0x0(%rax,%rax,1)
 1500c24:	00 00 00 
 1500c27:	66 2e 0f 1f 84 00 00 	cs nopw 0x0(%rax,%rax,1)
 1500c2e:	00 00 00 
 1500c31:	66 2e 0f 1f 84 00 00 	cs nopw 0x0(%rax,%rax,1)
 1500c38:	00 00 00 
 1500c3b:	66 2e 0f 1f 84 00 00 	cs nopw 0x0(%rax,%rax,1)
 1500c42:	00 00 00 
 1500c45:	66 2e 0f 1f 84 00 00 	cs nopw 0x0(%rax,%rax,1)
 1500c4c:	00 00 00 
 1500c4f:	66 2e 0f 1f 84 00 00 	cs nopw 0x0(%rax,%rax,1)
 1500c56:	00 00 00 
 1500c59:	66 2e 0f 1f 84 00 00 	cs nopw 0x0(%rax,%rax,1)
 1500c60:	00 00 00 
 1500c63:	66 2e 0f 1f 84 00 00 	cs nopw 0x0(%rax,%rax,1)
 1500c6a:	00 00 00 
 1500c6d:	66 2e 0f 1f 84 00 00 	cs nopw 0x0(%rax,%rax,1)
 1500c74:	00 00 00 
 1500c77:	66 2e 0f 1f 84 00 00 	cs nopw 0x0(%rax,%rax,1)
 1500c7e:	00 00 00 
 1500c81:	66 2e 0f 1f 84 00 00 	cs nopw 0x0(%rax,%rax,1)
 1500c88:	00 00 00 
 1500c8b:	66 2e 0f 1f 84 00 00 	cs nopw 0x0(%rax,%rax,1)
 1500c92:	00 00 00 
 1500c95:	66 2e 0f 1f 84 00 00 	cs nopw 0x0(%rax,%rax,1)
 1500c9c:	00 00 00 
 1500c9f:	66 2e 0f 1f 84 00 00 	cs nopw 0x0(%rax,%rax,1)
 1500ca6:	00 00 00 
 1500ca9:	66 2e 0f 1f 84 00 00 	cs nopw 0x0(%rax,%rax,1)
 1500cb0:	00 00 00 
 1500cb3:	66 2e 0f 1f 84 00 00 	cs nopw 0x0(%rax,%rax,1)
 1500cba:	00 00 00 
 1500cbd:	66 2e 0f 1f 84 00 00 	cs nopw 0x0(%rax,%rax,1)
 1500cc4:	00 00 00 
 1500cc7:	66 2e 0f 1f 84 00 00 	cs nopw 0x0(%rax,%rax,1)
 1500cce:	00 00 00 
 1500cd1:	66 2e 0f 1f 84 00 00 	cs nopw 0x0(%rax,%rax,1)
 1500cd8:	00 00 00 
 1500cdb:	66 2e 0f 1f 84 00 00 	cs nopw 0x0(%rax,%rax,1)
 1500ce2:	00 00 00 
 1500ce5:	66 2e 0f 1f 84 00 00 	cs nopw 0x0(%rax,%rax,1)
 1500cec:	00 00 00 
 1500cef:	66 2e 0f 1f 84 00 00 	cs nopw 0x0(%rax,%rax,1)
 1500cf6:	00 00 00 
 1500cf9:	66 2e 0f 1f 84 00 00 	cs nopw 0x0(%rax,%rax,1)
 1500d00:	00 00 00 
 1500d03:	66 2e 0f 1f 84 00 00 	cs nopw 0x0(%rax,%rax,1)
 1500d0a:	00 00 00 
 1500d0d:	66 2e 0f 1f 84 00 00 	cs nopw 0x0(%rax,%rax,1)
 1500d14:	00 00 00 
 1500d17:	66 2e 0f 1f 84 00 00 	cs nopw 0x0(%rax,%rax,1)
 1500d1e:	00 00 00 
 1500d21:	66 2e 0f 1f 84 00 00 	cs nopw 0x0(%rax,%rax,1)
 1500d28:	00 00 00 
 1500d2b:	66 2e 0f 1f 84 00 00 	cs nopw 0x0(%rax,%rax,1)
 1500d32:	00 00 00 
 1500d35:	66 2e 0f 1f 84 00 00 	cs nopw 0x0(%rax,%rax,1)
 1500d3c:	00 00 00 
 1500d3f:	66 2e 0f 1f 84 00 00 	cs nopw 0x0(%rax,%rax,1)
 1500d46:	00 00 00 
 1500d49:	66 2e 0f 1f 84 00 00 	cs nopw 0x0(%rax,%rax,1)
 1500d50:	00 00 00 
 1500d53:	66 2e 0f 1f 84 00 00 	cs nopw 0x0(%rax,%rax,1)
 1500d5a:	00 00 00 
 1500d5d:	66 2e 0f 1f 84 00 00 	cs nopw 0x0(%rax,%rax,1)
 1500d64:	00 00 00 
 1500d67:	66 2e 0f 1f 84 00 00 	cs nopw 0x0(%rax,%rax,1)
 1500d6e:	00 00 00 
 1500d71:	66 2e 0f 1f 84 00 00 	cs nopw 0x0(%rax,%rax,1)
 1500d78:	00 00 00 
 1500d7b:	66 2e 0f 1f 84 00 00 	cs nopw 0x0(%rax,%rax,1)
 1500d82:	00 00 00 
 1500d85:	66 2e 0f 1f 84 00 00 	cs nopw 0x0(%rax,%rax,1)
 1500d8c:	00 00 00 
 1500d8f:	66 2e 0f 1f 84 00 00 	cs nopw 0x0(%rax,%rax,1)
 1500d96:	00 00 00 
 1500d99:	66 2e 0f 1f 84 00 00 	cs nopw 0x0(%rax,%rax,1)
 1500da0:	00 00 00 
 1500da3:	66 2e 0f 1f 84 00 00 	cs nopw 0x0(%rax,%rax,1)
 1500daa:	00 00 00 
 1500dad:	66 2e 0f 1f 84 00 00 	cs nopw 0x0(%rax,%rax,1)
 1500db4:	00 00 00 
 1500db7:	66 2e 0f 1f 84 00 00 	cs nopw 0x0(%rax,%rax,1)
 1500dbe:	00 00 00 
 1500dc1:	66 2e 0f 1f 84 00 00 	cs nopw 0x0(%rax,%rax,1)
 1500dc8:	00 00 00 
 1500dcb:	66 2e 0f 1f 84 00 00 	cs nopw 0x0(%rax,%rax,1)
 1500dd2:	00 00 00 
 1500dd5:	66 2e 0f 1f 84 00 00 	cs nopw 0x0(%rax,%rax,1)
 1500ddc:	00 00 00 
 1500ddf:	66 2e 0f 1f 84 00 00 	cs nopw 0x0(%rax,%rax,1)
 1500de6:	00 00 00 
 1500de9:	66 2e 0f 1f 84 00 00 	cs nopw 0x0(%rax,%rax,1)
 1500df0:	00 00 00 
 1500df3:	66 2e 0f 1f 84 00 00 	cs nopw 0x0(%rax,%rax,1)
 1500dfa:	00 00 00 
 1500dfd:	66 2e 0f 1f 84 00 00 	cs nopw 0x0(%rax,%rax,1)
 1500e04:	00 00 00 
 1500e07:	66 2e 0f 1f 84 00 00 	cs nopw 0x0(%rax,%rax,1)
 1500e0e:	00 00 00 
 1500e11:	66 2e 0f 1f 84 00 00 	cs nopw 0x0(%rax,%rax,1)
 1500e18:	00 00 00 
 1500e1b:	66 2e 0f 1f 84 00 00 	cs nopw 0x0(%rax,%rax,1)
 1500e22:	00 00 00 
 1500e25:	66 2e 0f 1f 84 00 00 	cs nopw 0x0(%rax,%rax,1)
 1500e2c:	00 00 00 
 1500e2f:	66 2e 0f 1f 84 00 00 	cs nopw 0x0(%rax,%rax,1)
 1500e36:	00 00 00 
 1500e39:	66 2e 0f 1f 84 00 00 	cs nopw 0x0(%rax,%rax,1)
 1500e40:	00 00 00 
 1500e43:	66 2e 0f 1f 84 00 00 	cs nopw 0x0(%rax,%rax,1)
 1500e4a:	00 00 00 
 1500e4d:	66 2e 0f 1f 84 00 00 	cs nopw 0x0(%rax,%rax,1)
 1500e54:	00 00 00 
 1500e57:	66 2e 0f 1f 84 00 00 	cs nopw 0x0(%rax,%rax,1)
 1500e5e:	00 00 00 
 1500e61:	66 2e 0f 1f 84 00 00 	cs nopw 0x0(%rax,%rax,1)
 1500e68:	00 00 00 
 1500e6b:	66 2e 0f 1f 84 00 00 	cs nopw 0x0(%rax,%rax,1)
 1500e72:	00 00 00 
 1500e75:	66 2e 0f 1f 84 00 00 	cs nopw 0x0(%rax,%rax,1)
 1500e7c:	00 00 00 
 1500e7f:	66 2e 0f 1f 84 00 00 	cs nopw 0x0(%rax,%rax,1)
 1500e86:	00 00 00 
 1500e89:	66 2e 0f 1f 84 00 00 	cs nopw 0x0(%rax,%rax,1)
 1500e90:	00 00 00 
 1500e93:	66 2e 0f 1f 84 00 00 	cs nopw 0x0(%rax,%rax,1)
 1500e9a:	00 00 00 
 1500e9d:	66 2e 0f 1f 84 00 00 	cs nopw 0x0(%rax,%rax,1)
 1500ea4:	00 00 00 
 1500ea7:	66 2e 0f 1f 84 00 00 	cs nopw 0x0(%rax,%rax,1)
 1500eae:	00 00 00 
 1500eb1:	66 2e 0f 1f 84 00 00 	cs nopw 0x0(%rax,%rax,1)
 1500eb8:	00 00 00 
 1500ebb:	66 2e 0f 1f 84 00 00 	cs nopw 0x0(%rax,%rax,1)
 1500ec2:	00 00 00 
 1500ec5:	66 2e 0f 1f 84 00 00 	cs nopw 0x0(%rax,%rax,1)
 1500ecc:	00 00 00 
 1500ecf:	66 2e 0f 1f 84 00 00 	cs nopw 0x0(%rax,%rax,1)
 1500ed6:	00 00 00 
 1500ed9:	66 2e 0f 1f 84 00 00 	cs nopw 0x0(%rax,%rax,1)
 1500ee0:	00 00 00 
 1500ee3:	66 2e 0f 1f 84 00 00 	cs nopw 0x0(%rax,%rax,1)
 1500eea:	00 00 00 
 1500eed:	66 2e 0f 1f 84 00 00 	cs nopw 0x0(%rax,%rax,1)
 1500ef4:	00 00 00 
 1500ef7:	66 2e 0f 1f 84 00 00 	cs nopw 0x0(%rax,%rax,1)
 1500efe:	00 00 00 
 1500f01:	66 2e 0f 1f 84 00 00 	cs nopw 0x0(%rax,%rax,1)
 1500f08:	00 00 00 
 1500f0b:	66 2e 0f 1f 84 00 00 	cs nopw 0x0(%rax,%rax,1)
 1500f12:	00 00 00 
 1500f15:	66 2e 0f 1f 84 00 00 	cs nopw 0x0(%rax,%rax,1)
 1500f1c:	00 00 00 
 1500f1f:	66 2e 0f 1f 84 00 00 	cs nopw 0x0(%rax,%rax,1)
 1500f26:	00 00 00 
 1500f29:	66 2e 0f 1f 84 00 00 	cs nopw 0x0(%rax,%rax,1)
 1500f30:	00 00 00 
 1500f33:	66 2e 0f 1f 84 00 00 	cs nopw 0x0(%rax,%rax,1)
 1500f3a:	00 00 00 
 1500f3d:	66 2e 0f 1f 84 00 00 	cs nopw 0x0(%rax,%rax,1)
 1500f44:	00 00 00 
 1500f47:	66 2e 0f 1f 84 00 00 	cs nopw 0x0(%rax,%rax,1)
 1500f4e:	00 00 00 
 1500f51:	66 2e 0f 1f 84 00 00 	cs nopw 0x0(%rax,%rax,1)
 1500f58:	00 00 00 
 1500f5b:	66 2e 0f 1f 84 00 00 	cs nopw 0x0(%rax,%rax,1)
 1500f62:	00 00 00 
 1500f65:	66 2e 0f 1f 84 00 00 	cs nopw 0x0(%rax,%rax,1)
 1500f6c:	00 00 00 
 1500f6f:	66 2e 0f 1f 84 00 00 	cs nopw 0x0(%rax,%rax,1)
 1500f76:	00 00 00 
 1500f79:	66 2e 0f 1f 84 00 00 	cs nopw 0x0(%rax,%rax,1)
 1500f80:	00 00 00 
 1500f83:	66 2e 0f 1f 84 00 00 	cs nopw 0x0(%rax,%rax,1)
 1500f8a:	00 00 00 
 1500f8d:	66 2e 0f 1f 84 00 00 	cs nopw 0x0(%rax,%rax,1)
 1500f94:	00 00 00 
 1500f97:	66 2e 0f 1f 84 00 00 	cs nopw 0x0(%rax,%rax,1)
 1500f9e:	00 00 00 
 1500fa1:	66 2e 0f 1f 84 00 00 	cs nopw 0x0(%rax,%rax,1)
 1500fa8:	00 00 00 
 1500fab:	66 2e 0f 1f 84 00 00 	cs nopw 0x0(%rax,%rax,1)
 1500fb2:	00 00 00 
 1500fb5:	66 2e 0f 1f 84 00 00 	cs nopw 0x0(%rax,%rax,1)
 1500fbc:	00 00 00 
 1500fbf:	66 2e 0f 1f 84 00 00 	cs nopw 0x0(%rax,%rax,1)
 1500fc6:	00 00 00 
 1500fc9:	66 2e 0f 1f 84 00 00 	cs nopw 0x0(%rax,%rax,1)
 1500fd0:	00 00 00 
 1500fd3:	66 2e 0f 1f 84 00 00 	cs nopw 0x0(%rax,%rax,1)
 1500fda:	00 00 00 
 1500fdd:	66 2e 0f 1f 84 00 00 	cs nopw 0x0(%rax,%rax,1)
 1500fe4:	00 00 00 
 1500fe7:	66 2e 0f 1f 84 00 00 	cs nopw 0x0(%rax,%rax,1)
 1500fee:	00 00 00 
 1500ff1:	66 2e 0f 1f 84 00 00 	cs nopw 0x0(%rax,%rax,1)
 1500ff8:	00 00 00 
 1500ffb:	0f 1f 44 00 00       	nopl   0x0(%rax,%rax,1)

0000000001501000 <pml4phys>:
	...

0000000001502000 <pdpt1>:
	...

0000000001503000 <pdpt2>:
	...

0000000001504000 <pde1>:
	...

0000000001505000 <pde2>:
	...

0000000001506000 <pdefreestart>:
	...

Disassembly of section .text:

0000008041600000 <__text_start>:
.text

.globl entry
entry:
    # Set up kernel stack
    leaq bootstacktop(%rip),%rsp
  8041600000:	48 8d 25 f9 cf 01 00 	lea    0x1cff9(%rip),%rsp        # 804161d000 <bootstacktop>
    xor %ebp, %ebp
  8041600007:	31 ed                	xor    %ebp,%ebp

    # Save LoadParams in uefi_lp.
    movq %rcx, uefi_lp(%rip)
  8041600009:	48 89 0d f0 cf 02 00 	mov    %rcx,0x2cff0(%rip)        # 804162d000 <pfstacktop>

    # Invoke C code
    call i386_init
  8041600010:	e8 6d 05 00 00       	call   8041600582 <i386_init>
    # Should never reach this place
    jmp .
  8041600015:	eb fe                	jmp    8041600015 <__text_start+0x15>

0000008041600017 <save_trapframe_trap>:

#ifdef CONFIG_KSPACE

.global save_trapframe_trap
save_trapframe_trap:
    popq save_trapframe_ret(%rip)
  8041600017:	8f 05 eb cf 02 00    	pop    0x2cfeb(%rip)        # 804162d008 <save_trapframe_ret>
    popq saved_rip(%rip)
  804160001d:	8f 05 b5 cf 01 00    	pop    0x1cfb5(%rip)        # 804161cfd8 <saved_rip>
    popq saved_cs(%rip)
  8041600023:	8f 05 b7 cf 01 00    	pop    0x1cfb7(%rip)        # 804161cfe0 <saved_cs>
    popq saved_rflags(%rip)
  8041600029:	8f 05 b9 cf 01 00    	pop    0x1cfb9(%rip)        # 804161cfe8 <saved_rflags>
    popq saved_rsp(%rip)
  804160002f:	8f 05 bb cf 01 00    	pop    0x1cfbb(%rip)        # 804161cff0 <saved_rsp>
    popq saved_ss(%rip)
  8041600035:	8f 05 bd cf 01 00    	pop    0x1cfbd(%rip)        # 804161cff8 <saved_ss>
    jmp save_trapframe
  804160003b:	eb 30                	jmp    804160006d <save_trapframe>

000000804160003d <save_trapframe_syscall>:

save_trapframe_syscall:
    popq save_trapframe_ret(%rip)
  804160003d:	8f 05 c5 cf 02 00    	pop    0x2cfc5(%rip)        # 804162d008 <save_trapframe_ret>
    popq saved_rip(%rip)
  8041600043:	8f 05 8f cf 01 00    	pop    0x1cf8f(%rip)        # 804161cfd8 <saved_rip>
    movq %rsp, saved_rsp(%rip)
  8041600049:	48 89 25 a0 cf 01 00 	mov    %rsp,0x1cfa0(%rip)        # 804161cff0 <saved_rsp>
    pushfq
  8041600050:	9c                   	pushf  
    movq $GD_KD, saved_ss(%rip)
  8041600051:	48 c7 05 9c cf 01 00 	movq   $0x10,0x1cf9c(%rip)        # 804161cff8 <saved_ss>
  8041600058:	10 00 00 00 
    movq $GD_KT, saved_cs(%rip)
  804160005c:	48 c7 05 79 cf 01 00 	movq   $0x8,0x1cf79(%rip)        # 804161cfe0 <saved_cs>
  8041600063:	08 00 00 00 
    popq saved_rflags(%rip)
  8041600067:	8f 05 7b cf 01 00    	pop    0x1cf7b(%rip)        # 804161cfe8 <saved_rflags>

000000804160006d <save_trapframe>:
    # fallthrough

save_trapframe:
    orl $FL_IF, saved_rflags(%rip)
  804160006d:	81 0d 71 cf 01 00 00 	orl    $0x200,0x1cf71(%rip)        # 804161cfe8 <saved_rflags>
  8041600074:	02 00 00 

    # We already pushed ss,rsp,rflags,cs,rip
    # implicitly
    leaq (bootstacktop-0x28)(%rip), %rsp
  8041600077:	48 8d 25 5a cf 01 00 	lea    0x1cf5a(%rip),%rsp        # 804161cfd8 <saved_rip>

    pushq $0x0
  804160007e:	6a 00                	push   $0x0
    pushq $0x0
  8041600080:	6a 00                	push   $0x0
    pushq $0x0 # %ds
  8041600082:	6a 00                	push   $0x0
    pushq $0x0 # %es
  8041600084:	6a 00                	push   $0x0

    PUSHA
  8041600086:	48 83 ec 78          	sub    $0x78,%rsp
  804160008a:	48 89 44 24 70       	mov    %rax,0x70(%rsp)
  804160008f:	48 89 5c 24 68       	mov    %rbx,0x68(%rsp)
  8041600094:	48 89 4c 24 60       	mov    %rcx,0x60(%rsp)
  8041600099:	48 89 54 24 58       	mov    %rdx,0x58(%rsp)
  804160009e:	48 89 6c 24 50       	mov    %rbp,0x50(%rsp)
  80416000a3:	48 89 7c 24 48       	mov    %rdi,0x48(%rsp)
  80416000a8:	48 89 74 24 40       	mov    %rsi,0x40(%rsp)
  80416000ad:	4c 89 44 24 38       	mov    %r8,0x38(%rsp)
  80416000b2:	4c 89 4c 24 30       	mov    %r9,0x30(%rsp)
  80416000b7:	4c 89 54 24 28       	mov    %r10,0x28(%rsp)
  80416000bc:	4c 89 5c 24 20       	mov    %r11,0x20(%rsp)
  80416000c1:	4c 89 64 24 18       	mov    %r12,0x18(%rsp)
  80416000c6:	4c 89 6c 24 10       	mov    %r13,0x10(%rsp)
  80416000cb:	4c 89 74 24 08       	mov    %r14,0x8(%rsp)
  80416000d0:	4c 89 3c 24          	mov    %r15,(%rsp)

    xor %ebp, %ebp
  80416000d4:	31 ed                	xor    %ebp,%ebp
    movq %rsp, %rdi
  80416000d6:	48 89 e7             	mov    %rsp,%rdi
    jmp *save_trapframe_ret(%rip)
  80416000d9:	ff 25 29 cf 02 00    	jmp    *0x2cf29(%rip)        # 804162d008 <save_trapframe_ret>

00000080416000df <sys_yield>:

.globl sys_yield
.type  sys_yield, @function
sys_yield:
    cli
  80416000df:	fa                   	cli    
    call save_trapframe_syscall
  80416000e0:	e8 58 ff ff ff       	call   804160003d <save_trapframe_syscall>
    call csys_yield
  80416000e5:	e8 bf 69 00 00       	call   8041606aa9 <csys_yield>
    jmp .
  80416000ea:	eb fe                	jmp    80416000ea <sys_yield+0xb>

00000080416000ec <sys_exit>:

# LAB 3: Your code here:
.globl sys_exit
.type  sys_exit, @function
sys_exit:
    cli
  80416000ec:	fa                   	cli    
    leaq bootstacktop(%rip),%rsp
  80416000ed:	48 8d 25 0c cf 01 00 	lea    0x1cf0c(%rip),%rsp        # 804161d000 <bootstacktop>

    call csys_exit
  80416000f4:	e8 60 69 00 00       	call   8041606a59 <csys_exit>
    jmp .
  80416000f9:	eb fe                	jmp    80416000f9 <sys_exit+0xd>

00000080416000fb <timers_init>:
#include <kern/kdebug.h>
#include <kern/traceopt.h>
#include <kern/net.h>

void
timers_init(void) {
  80416000fb:	f3 0f 1e fa          	endbr64 
  80416000ff:	55                   	push   %rbp
  8041600100:	48 89 e5             	mov    %rsp,%rbp
  8041600103:	41 56                	push   %r14
  8041600105:	41 55                	push   %r13
  8041600107:	41 54                	push   %r12
  8041600109:	53                   	push   %rbx
    timertab[0] = timer_rtc;
  804160010a:	48 b8 a0 54 e4 41 80 	movabs $0x8041e454a0,%rax
  8041600111:	00 00 00 
  8041600114:	48 ba 40 d7 62 41 80 	movabs $0x804162d740,%rdx
  804160011b:	00 00 00 
  804160011e:	48 8b 0a             	mov    (%rdx),%rcx
  8041600121:	48 89 08             	mov    %rcx,(%rax)
  8041600124:	48 8b 4a 08          	mov    0x8(%rdx),%rcx
  8041600128:	48 89 48 08          	mov    %rcx,0x8(%rax)
  804160012c:	48 8b 4a 10          	mov    0x10(%rdx),%rcx
  8041600130:	48 89 48 10          	mov    %rcx,0x10(%rax)
  8041600134:	48 8b 4a 18          	mov    0x18(%rdx),%rcx
  8041600138:	48 89 48 18          	mov    %rcx,0x18(%rax)
  804160013c:	48 8b 52 20          	mov    0x20(%rdx),%rdx
  8041600140:	48 89 50 20          	mov    %rdx,0x20(%rax)
    timertab[1] = timer_pit;
  8041600144:	48 ba e0 d8 62 41 80 	movabs $0x804162d8e0,%rdx
  804160014b:	00 00 00 
  804160014e:	48 8b 0a             	mov    (%rdx),%rcx
  8041600151:	48 89 48 28          	mov    %rcx,0x28(%rax)
  8041600155:	48 8b 4a 08          	mov    0x8(%rdx),%rcx
  8041600159:	48 89 48 30          	mov    %rcx,0x30(%rax)
  804160015d:	48 8b 4a 10          	mov    0x10(%rdx),%rcx
  8041600161:	48 89 48 38          	mov    %rcx,0x38(%rax)
  8041600165:	48 8b 4a 18          	mov    0x18(%rdx),%rcx
  8041600169:	48 89 48 40          	mov    %rcx,0x40(%rax)
  804160016d:	48 8b 52 20          	mov    0x20(%rdx),%rdx
  8041600171:	48 89 50 48          	mov    %rdx,0x48(%rax)
    timertab[2] = timer_acpipm;
  8041600175:	48 ba 00 d8 62 41 80 	movabs $0x804162d800,%rdx
  804160017c:	00 00 00 
  804160017f:	48 8b 0a             	mov    (%rdx),%rcx
  8041600182:	48 89 48 50          	mov    %rcx,0x50(%rax)
  8041600186:	48 8b 4a 08          	mov    0x8(%rdx),%rcx
  804160018a:	48 89 48 58          	mov    %rcx,0x58(%rax)
  804160018e:	48 8b 4a 10          	mov    0x10(%rdx),%rcx
  8041600192:	48 89 48 60          	mov    %rcx,0x60(%rax)
  8041600196:	48 8b 4a 18          	mov    0x18(%rdx),%rcx
  804160019a:	48 89 48 68          	mov    %rcx,0x68(%rax)
  804160019e:	48 8b 52 20          	mov    0x20(%rdx),%rdx
  80416001a2:	48 89 50 70          	mov    %rdx,0x70(%rax)
    timertab[3] = timer_hpet0;
  80416001a6:	48 ba 80 d8 62 41 80 	movabs $0x804162d880,%rdx
  80416001ad:	00 00 00 
  80416001b0:	48 8b 0a             	mov    (%rdx),%rcx
  80416001b3:	48 89 48 78          	mov    %rcx,0x78(%rax)
  80416001b7:	48 8b 4a 08          	mov    0x8(%rdx),%rcx
  80416001bb:	48 89 88 80 00 00 00 	mov    %rcx,0x80(%rax)
  80416001c2:	48 8b 4a 10          	mov    0x10(%rdx),%rcx
  80416001c6:	48 89 88 88 00 00 00 	mov    %rcx,0x88(%rax)
  80416001cd:	48 8b 4a 18          	mov    0x18(%rdx),%rcx
  80416001d1:	48 89 88 90 00 00 00 	mov    %rcx,0x90(%rax)
  80416001d8:	48 8b 52 20          	mov    0x20(%rdx),%rdx
  80416001dc:	48 89 90 98 00 00 00 	mov    %rdx,0x98(%rax)
    timertab[4] = timer_hpet1;
  80416001e3:	48 ba 40 d8 62 41 80 	movabs $0x804162d840,%rdx
  80416001ea:	00 00 00 
  80416001ed:	48 8b 0a             	mov    (%rdx),%rcx
  80416001f0:	48 89 88 a0 00 00 00 	mov    %rcx,0xa0(%rax)
  80416001f7:	48 8b 4a 08          	mov    0x8(%rdx),%rcx
  80416001fb:	48 89 88 a8 00 00 00 	mov    %rcx,0xa8(%rax)
  8041600202:	48 8b 4a 10          	mov    0x10(%rdx),%rcx
  8041600206:	48 89 88 b0 00 00 00 	mov    %rcx,0xb0(%rax)
  804160020d:	48 8b 4a 18          	mov    0x18(%rdx),%rcx
  8041600211:	48 89 88 b8 00 00 00 	mov    %rcx,0xb8(%rax)
  8041600218:	48 8b 52 20          	mov    0x20(%rdx),%rdx
  804160021c:	48 89 90 c0 00 00 00 	mov    %rdx,0xc0(%rax)

    for (int i = 0; i < MAX_TIMERS; i++) {
  8041600223:	48 89 c3             	mov    %rax,%rbx
  8041600226:	4c 8d a0 c8 00 00 00 	lea    0xc8(%rax),%r12
        if (timertab[i].timer_init) {
            timertab[i].timer_init();
            if (trace_init) cprintf("Initialized timer %s\n", timertab[i].timer_name);
  804160022d:	49 be 10 a1 60 41 80 	movabs $0x804160a110,%r14
  8041600234:	00 00 00 
  8041600237:	49 bd b7 6f 60 41 80 	movabs $0x8041606fb7,%r13
  804160023e:	00 00 00 
  8041600241:	eb 09                	jmp    804160024c <timers_init+0x151>
    for (int i = 0; i < MAX_TIMERS; i++) {
  8041600243:	48 83 c3 28          	add    $0x28,%rbx
  8041600247:	4c 39 e3             	cmp    %r12,%rbx
  804160024a:	74 1b                	je     8041600267 <timers_init+0x16c>
        if (timertab[i].timer_init) {
  804160024c:	48 8b 43 08          	mov    0x8(%rbx),%rax
  8041600250:	48 85 c0             	test   %rax,%rax
  8041600253:	74 ee                	je     8041600243 <timers_init+0x148>
            timertab[i].timer_init();
  8041600255:	ff d0                	call   *%rax
            if (trace_init) cprintf("Initialized timer %s\n", timertab[i].timer_name);
  8041600257:	48 8b 33             	mov    (%rbx),%rsi
  804160025a:	4c 89 f7             	mov    %r14,%rdi
  804160025d:	b8 00 00 00 00       	mov    $0x0,%eax
  8041600262:	41 ff d5             	call   *%r13
  8041600265:	eb dc                	jmp    8041600243 <timers_init+0x148>
        }
    }
}
  8041600267:	5b                   	pop    %rbx
  8041600268:	41 5c                	pop    %r12
  804160026a:	41 5d                	pop    %r13
  804160026c:	41 5e                	pop    %r14
  804160026e:	5d                   	pop    %rbp
  804160026f:	c3                   	ret    

0000008041600270 <alloc_pd_early_boot>:

    panic("Timer %s does not exist\n", name);
}

pde_t *
alloc_pd_early_boot(void) {
  8041600270:	f3 0f 1e fa          	endbr64 
    /* Assume pde1, pde2 is already used */
    extern uintptr_t pdefreestart, pdefreeend;
    static uintptr_t pdefree = (uintptr_t)&pdefreestart;

    if (pdefree >= (uintptr_t)&pdefreeend) return NULL;
  8041600274:	48 a1 10 d0 62 41 80 	movabs 0x804162d010,%rax
  804160027b:	00 00 00 
  804160027e:	48 ba 00 c0 50 01 00 	movabs $0x150c000,%rdx
  8041600285:	00 00 00 
  8041600288:	48 39 d0             	cmp    %rdx,%rax
  804160028b:	73 17                	jae    80416002a4 <alloc_pd_early_boot+0x34>

    pde_t *ret = (pde_t *)pdefree;
  804160028d:	48 89 c2             	mov    %rax,%rdx
    pdefree += PAGE_SIZE;
  8041600290:	48 05 00 10 00 00    	add    $0x1000,%rax
  8041600296:	48 a3 10 d0 62 41 80 	movabs %rax,0x804162d010
  804160029d:	00 00 00 
    return ret;
}
  80416002a0:	48 89 d0             	mov    %rdx,%rax
  80416002a3:	c3                   	ret    
    if (pdefree >= (uintptr_t)&pdefreeend) return NULL;
  80416002a4:	ba 00 00 00 00       	mov    $0x0,%edx
  80416002a9:	eb f5                	jmp    80416002a0 <alloc_pd_early_boot+0x30>

00000080416002ab <map_addr_early_boot>:

void
map_addr_early_boot(uintptr_t va, uintptr_t pa, size_t sz) {
  80416002ab:	f3 0f 1e fa          	endbr64 
  80416002af:	55                   	push   %rbp
  80416002b0:	48 89 e5             	mov    %rsp,%rbp
  80416002b3:	41 57                	push   %r15
  80416002b5:	41 56                	push   %r14
  80416002b7:	41 55                	push   %r13
  80416002b9:	41 54                	push   %r12
  80416002bb:	53                   	push   %rbx
  80416002bc:	48 83 ec 18          	sub    $0x18,%rsp

    pml4e_t *pml4 = &pml4phys;
    pdpe_t *pdp;
    pde_t *pd;

    uintptr_t vstart = ROUNDDOWN(va, HUGE_PAGE_SIZE);
  80416002c0:	48 89 f8             	mov    %rdi,%rax
  80416002c3:	48 25 00 00 e0 ff    	and    $0xffffffffffe00000,%rax
    uintptr_t vend = ROUNDUP(va + sz, HUGE_PAGE_SIZE);
  80416002c9:	4c 8d bc 17 ff ff 1f 	lea    0x1fffff(%rdi,%rdx,1),%r15
  80416002d0:	00 
  80416002d1:	49 81 e7 00 00 e0 ff 	and    $0xffffffffffe00000,%r15
    uintptr_t pstart = ROUNDDOWN(pa, HUGE_PAGE_SIZE);
  80416002d8:	48 81 e6 00 00 e0 ff 	and    $0xffffffffffe00000,%rsi

    pdp = (pdpe_t *)PTE_ADDR(pml4[PML4_INDEX(vstart)]);
  80416002df:	48 c1 ef 24          	shr    $0x24,%rdi
  80416002e3:	81 e7 f8 0f 00 00    	and    $0xff8,%edi
  80416002e9:	48 ba 00 10 50 01 00 	movabs $0x1501000,%rdx
  80416002f0:	00 00 00 
  80416002f3:	48 b9 00 f0 ff ff ff 	movabs $0x7ffffffffffff000,%rcx
  80416002fa:	ff ff 7f 
  80416002fd:	48 23 0c 3a          	and    (%rdx,%rdi,1),%rcx
  8041600301:	48 89 4d c8          	mov    %rcx,-0x38(%rbp)
    for (; vstart < vend; vstart += HUGE_PAGE_SIZE, pstart += HUGE_PAGE_SIZE) {
  8041600305:	49 39 c7             	cmp    %rax,%r15
  8041600308:	76 70                	jbe    804160037a <map_addr_early_boot+0xcf>
    uintptr_t vstart = ROUNDDOWN(va, HUGE_PAGE_SIZE);
  804160030a:	49 89 c4             	mov    %rax,%r12
  804160030d:	48 29 c6             	sub    %rax,%rsi
  8041600310:	48 89 75 c0          	mov    %rsi,-0x40(%rbp)
        pd = (pde_t *)PTE_ADDR(pdp[PDP_INDEX(vstart)]);
  8041600314:	49 be 00 f0 ff ff ff 	movabs $0x7ffffffffffff000,%r14
  804160031b:	ff ff 7f 
  804160031e:	eb 21                	jmp    8041600341 <map_addr_early_boot+0x96>
        if (!pd) {
            pd = alloc_pd_early_boot();
            pdp[PDP_INDEX(vstart)] = (uintptr_t)pd | PTE_P | PTE_W;
        }
        pd[PD_INDEX(vstart)] = pstart | PTE_P | PTE_W | PTE_PS;
  8041600320:	4c 89 e2             	mov    %r12,%rdx
  8041600323:	48 c1 ea 15          	shr    $0x15,%rdx
  8041600327:	81 e2 ff 01 00 00    	and    $0x1ff,%edx
  804160032d:	41 80 cd 83          	or     $0x83,%r13b
  8041600331:	4c 89 2c d0          	mov    %r13,(%rax,%rdx,8)
    for (; vstart < vend; vstart += HUGE_PAGE_SIZE, pstart += HUGE_PAGE_SIZE) {
  8041600335:	49 81 c4 00 00 20 00 	add    $0x200000,%r12
  804160033c:	4d 39 e7             	cmp    %r12,%r15
  804160033f:	76 39                	jbe    804160037a <map_addr_early_boot+0xcf>
  8041600341:	48 8b 45 c0          	mov    -0x40(%rbp),%rax
  8041600345:	4e 8d 2c 20          	lea    (%rax,%r12,1),%r13
        pd = (pde_t *)PTE_ADDR(pdp[PDP_INDEX(vstart)]);
  8041600349:	4c 89 e3             	mov    %r12,%rbx
  804160034c:	48 c1 eb 1b          	shr    $0x1b,%rbx
  8041600350:	81 e3 f8 0f 00 00    	and    $0xff8,%ebx
  8041600356:	48 03 5d c8          	add    -0x38(%rbp),%rbx
        if (!pd) {
  804160035a:	4c 89 f0             	mov    %r14,%rax
  804160035d:	48 23 03             	and    (%rbx),%rax
  8041600360:	75 be                	jne    8041600320 <map_addr_early_boot+0x75>
            pd = alloc_pd_early_boot();
  8041600362:	48 b8 70 02 60 41 80 	movabs $0x8041600270,%rax
  8041600369:	00 00 00 
  804160036c:	ff d0                	call   *%rax
            pdp[PDP_INDEX(vstart)] = (uintptr_t)pd | PTE_P | PTE_W;
  804160036e:	48 89 c2             	mov    %rax,%rdx
  8041600371:	48 83 ca 03          	or     $0x3,%rdx
  8041600375:	48 89 13             	mov    %rdx,(%rbx)
  8041600378:	eb a6                	jmp    8041600320 <map_addr_early_boot+0x75>
    }
}
  804160037a:	48 83 c4 18          	add    $0x18,%rsp
  804160037e:	5b                   	pop    %rbx
  804160037f:	41 5c                	pop    %r12
  8041600381:	41 5d                	pop    %r13
  8041600383:	41 5e                	pop    %r14
  8041600385:	41 5f                	pop    %r15
  8041600387:	5d                   	pop    %rbp
  8041600388:	c3                   	ret    

0000008041600389 <early_boot_pml4_init>:
extern char end[];

/* Additionally maps pml4 memory so that we dont get memory errors on accessing
 * uefi_lp, MemMap, KASAN functions. */
void
early_boot_pml4_init(void) {
  8041600389:	f3 0f 1e fa          	endbr64 
  804160038d:	55                   	push   %rbp
  804160038e:	48 89 e5             	mov    %rsp,%rbp
  8041600391:	41 54                	push   %r12
  8041600393:	53                   	push   %rbx
    map_addr_early_boot((uintptr_t)uefi_lp, (uintptr_t)uefi_lp, sizeof(LOADER_PARAMS));
  8041600394:	49 bc 00 d0 62 41 80 	movabs $0x804162d000,%r12
  804160039b:	00 00 00 
  804160039e:	49 8b 3c 24          	mov    (%r12),%rdi
  80416003a2:	ba e8 00 00 00       	mov    $0xe8,%edx
  80416003a7:	48 89 fe             	mov    %rdi,%rsi
  80416003aa:	48 bb ab 02 60 41 80 	movabs $0x80416002ab,%rbx
  80416003b1:	00 00 00 
  80416003b4:	ff d3                	call   *%rbx
    map_addr_early_boot((uintptr_t)uefi_lp->MemoryMap, (uintptr_t)uefi_lp->MemoryMap, uefi_lp->MemoryMapSize);
  80416003b6:	49 8b 04 24          	mov    (%r12),%rax
  80416003ba:	48 8b 78 28          	mov    0x28(%rax),%rdi
  80416003be:	48 8b 50 38          	mov    0x38(%rax),%rdx
  80416003c2:	48 89 fe             	mov    %rdi,%rsi
  80416003c5:	ff d3                	call   *%rbx
     * it with other shadow memory would cause weird memory errors */
    map_shadow_early_boot(SHADOW_ADDR(KERN_STACK_TOP - KERN_STACK_SIZE), HUGE_PAGE_SIZE, one_page_raw);
#endif

#if LAB <= 6
    map_addr_early_boot(FRAMEBUFFER, uefi_lp->FrameBufferBase, uefi_lp->FrameBufferSize);
  80416003c7:	49 8b 04 24          	mov    (%r12),%rax
  80416003cb:	8b 50 48             	mov    0x48(%rax),%edx
  80416003ce:	48 8b 70 40          	mov    0x40(%rax),%rsi
  80416003d2:	48 bf 00 00 e0 1f 80 	movabs $0x801fe00000,%rdi
  80416003d9:	00 00 00 
  80416003dc:	ff d3                	call   *%rbx
#endif
}
  80416003de:	5b                   	pop    %rbx
  80416003df:	41 5c                	pop    %r12
  80416003e1:	5d                   	pop    %rbp
  80416003e2:	c3                   	ret    

00000080416003e3 <_panic>:
const char *panicstr = NULL;

/* Panic is called on unresolvable fatal errors.
 * It prints "panic: mesg", and then enters the kernel monitor. */
_Noreturn void
_panic(const char *file, int line, const char *fmt, ...) {
  80416003e3:	f3 0f 1e fa          	endbr64 
  80416003e7:	55                   	push   %rbp
  80416003e8:	48 89 e5             	mov    %rsp,%rbp
  80416003eb:	41 54                	push   %r12
  80416003ed:	53                   	push   %rbx
  80416003ee:	48 83 ec 50          	sub    $0x50,%rsp
  80416003f2:	48 89 4d d8          	mov    %rcx,-0x28(%rbp)
  80416003f6:	4c 89 45 e0          	mov    %r8,-0x20(%rbp)
  80416003fa:	4c 89 4d e8          	mov    %r9,-0x18(%rbp)
    va_list ap;

    if (panicstr) goto dead;
  80416003fe:	48 b8 00 00 80 41 80 	movabs $0x8041800000,%rax
  8041600405:	00 00 00 
  8041600408:	48 83 38 00          	cmpq   $0x0,(%rax)
  804160040c:	74 13                	je     8041600421 <_panic+0x3e>
    cprintf("\n");
    va_end(ap);

dead:
    /* Break into the kernel monitor */
    for (;;) monitor(NULL);
  804160040e:	48 bb 6f 47 60 41 80 	movabs $0x804160476f,%rbx
  8041600415:	00 00 00 
  8041600418:	bf 00 00 00 00       	mov    $0x0,%edi
  804160041d:	ff d3                	call   *%rbx
  804160041f:	eb f7                	jmp    8041600418 <_panic+0x35>
  8041600421:	48 89 d3             	mov    %rdx,%rbx
    panicstr = fmt;
  8041600424:	48 89 d0             	mov    %rdx,%rax
  8041600427:	48 a3 00 00 80 41 80 	movabs %rax,0x8041800000
  804160042e:	00 00 00 
    asm volatile("cli; cld");
  8041600431:	fa                   	cli    
  8041600432:	fc                   	cld    
    va_start(ap, fmt);
  8041600433:	c7 45 a8 18 00 00 00 	movl   $0x18,-0x58(%rbp)
  804160043a:	48 8d 45 10          	lea    0x10(%rbp),%rax
  804160043e:	48 89 45 b0          	mov    %rax,-0x50(%rbp)
  8041600442:	48 8d 45 c0          	lea    -0x40(%rbp),%rax
  8041600446:	48 89 45 b8          	mov    %rax,-0x48(%rbp)
    cprintf("kernel panic at %s:%d: ", file, line);
  804160044a:	89 f2                	mov    %esi,%edx
  804160044c:	48 89 fe             	mov    %rdi,%rsi
  804160044f:	48 bf 26 a1 60 41 80 	movabs $0x804160a126,%rdi
  8041600456:	00 00 00 
  8041600459:	b8 00 00 00 00       	mov    $0x0,%eax
  804160045e:	49 bc b7 6f 60 41 80 	movabs $0x8041606fb7,%r12
  8041600465:	00 00 00 
  8041600468:	41 ff d4             	call   *%r12
    vcprintf(fmt, ap);
  804160046b:	48 8d 75 a8          	lea    -0x58(%rbp),%rsi
  804160046f:	48 89 df             	mov    %rbx,%rdi
  8041600472:	48 b8 7f 6f 60 41 80 	movabs $0x8041606f7f,%rax
  8041600479:	00 00 00 
  804160047c:	ff d0                	call   *%rax
    cprintf("\n");
  804160047e:	48 bf f0 a1 60 41 80 	movabs $0x804160a1f0,%rdi
  8041600485:	00 00 00 
  8041600488:	b8 00 00 00 00       	mov    $0x0,%eax
  804160048d:	41 ff d4             	call   *%r12
    va_end(ap);
  8041600490:	e9 79 ff ff ff       	jmp    804160040e <_panic+0x2b>

0000008041600495 <timers_schedule>:
timers_schedule(const char *name) {
  8041600495:	f3 0f 1e fa          	endbr64 
  8041600499:	55                   	push   %rbp
  804160049a:	48 89 e5             	mov    %rsp,%rbp
  804160049d:	41 56                	push   %r14
  804160049f:	41 55                	push   %r13
  80416004a1:	41 54                	push   %r12
  80416004a3:	53                   	push   %rbx
  80416004a4:	49 89 fd             	mov    %rdi,%r13
    for (int i = 0; i < MAX_TIMERS; i++) {
  80416004a7:	49 bc a0 54 e4 41 80 	movabs $0x8041e454a0,%r12
  80416004ae:	00 00 00 
  80416004b1:	bb 00 00 00 00       	mov    $0x0,%ebx
        if (timertab[i].timer_name && !strcmp(timertab[i].timer_name, name)) {
  80416004b6:	49 be a6 92 60 41 80 	movabs $0x80416092a6,%r14
  80416004bd:	00 00 00 
  80416004c0:	eb 3a                	jmp    80416004fc <timers_schedule+0x67>
                panic("Timer %s does not support interrupts\n", name);
  80416004c2:	4c 89 e9             	mov    %r13,%rcx
  80416004c5:	48 ba c0 a1 60 41 80 	movabs $0x804160a1c0,%rdx
  80416004cc:	00 00 00 
  80416004cf:	be 2c 00 00 00       	mov    $0x2c,%esi
  80416004d4:	48 bf 3e a1 60 41 80 	movabs $0x804160a13e,%rdi
  80416004db:	00 00 00 
  80416004de:	b8 00 00 00 00       	mov    $0x0,%eax
  80416004e3:	49 b8 e3 03 60 41 80 	movabs $0x80416003e3,%r8
  80416004ea:	00 00 00 
  80416004ed:	41 ff d0             	call   *%r8
    for (int i = 0; i < MAX_TIMERS; i++) {
  80416004f0:	83 c3 01             	add    $0x1,%ebx
  80416004f3:	49 83 c4 28          	add    $0x28,%r12
  80416004f7:	83 fb 05             	cmp    $0x5,%ebx
  80416004fa:	74 58                	je     8041600554 <timers_schedule+0xbf>
        if (timertab[i].timer_name && !strcmp(timertab[i].timer_name, name)) {
  80416004fc:	49 8b 3c 24          	mov    (%r12),%rdi
  8041600500:	48 85 ff             	test   %rdi,%rdi
  8041600503:	74 eb                	je     80416004f0 <timers_schedule+0x5b>
  8041600505:	4c 89 ee             	mov    %r13,%rsi
  8041600508:	41 ff d6             	call   *%r14
  804160050b:	85 c0                	test   %eax,%eax
  804160050d:	75 e1                	jne    80416004f0 <timers_schedule+0x5b>
            if (!timertab[i].enable_interrupts) {
  804160050f:	48 63 c3             	movslq %ebx,%rax
  8041600512:	48 8d 14 80          	lea    (%rax,%rax,4),%rdx
  8041600516:	48 b8 a0 54 e4 41 80 	movabs $0x8041e454a0,%rax
  804160051d:	00 00 00 
  8041600520:	48 8b 54 d0 18       	mov    0x18(%rax,%rdx,8),%rdx
  8041600525:	48 85 d2             	test   %rdx,%rdx
  8041600528:	74 98                	je     80416004c2 <timers_schedule+0x2d>
            timer_for_schedule = &timertab[i];
  804160052a:	48 63 db             	movslq %ebx,%rbx
  804160052d:	48 8d 0c 9b          	lea    (%rbx,%rbx,4),%rcx
  8041600531:	48 b8 a0 54 e4 41 80 	movabs $0x8041e454a0,%rax
  8041600538:	00 00 00 
  804160053b:	48 8d 04 c8          	lea    (%rax,%rcx,8),%rax
  804160053f:	48 a3 80 54 e4 41 80 	movabs %rax,0x8041e45480
  8041600546:	00 00 00 
            timertab[i].enable_interrupts();
  8041600549:	ff d2                	call   *%rdx
}
  804160054b:	5b                   	pop    %rbx
  804160054c:	41 5c                	pop    %r12
  804160054e:	41 5d                	pop    %r13
  8041600550:	41 5e                	pop    %r14
  8041600552:	5d                   	pop    %rbp
  8041600553:	c3                   	ret    
    panic("Timer %s does not exist\n", name);
  8041600554:	4c 89 e9             	mov    %r13,%rcx
  8041600557:	48 ba 4a a1 60 41 80 	movabs $0x804160a14a,%rdx
  804160055e:	00 00 00 
  8041600561:	be 35 00 00 00       	mov    $0x35,%esi
  8041600566:	48 bf 3e a1 60 41 80 	movabs $0x804160a13e,%rdi
  804160056d:	00 00 00 
  8041600570:	b8 00 00 00 00       	mov    $0x0,%eax
  8041600575:	49 b8 e3 03 60 41 80 	movabs $0x80416003e3,%r8
  804160057c:	00 00 00 
  804160057f:	41 ff d0             	call   *%r8

0000008041600582 <i386_init>:
i386_init(void) {
  8041600582:	f3 0f 1e fa          	endbr64 
  8041600586:	55                   	push   %rbp
  8041600587:	48 89 e5             	mov    %rsp,%rbp
  804160058a:	53                   	push   %rbx
  804160058b:	48 83 ec 08          	sub    $0x8,%rsp
    early_boot_pml4_init();
  804160058f:	48 b8 89 03 60 41 80 	movabs $0x8041600389,%rax
  8041600596:	00 00 00 
  8041600599:	ff d0                	call   *%rax
    cons_init();
  804160059b:	48 b8 60 0d 60 41 80 	movabs $0x8041600d60,%rax
  80416005a2:	00 00 00 
  80416005a5:	ff d0                	call   *%rax
    tsc_calibrate();
  80416005a7:	48 b8 52 96 60 41 80 	movabs $0x8041609652,%rax
  80416005ae:	00 00 00 
  80416005b1:	ff d0                	call   *%rax
        cprintf("6828 decimal is %o octal!\n", 6828);
  80416005b3:	be ac 1a 00 00       	mov    $0x1aac,%esi
  80416005b8:	48 bf 63 a1 60 41 80 	movabs $0x804160a163,%rdi
  80416005bf:	00 00 00 
  80416005c2:	b8 00 00 00 00       	mov    $0x0,%eax
  80416005c7:	48 bb b7 6f 60 41 80 	movabs $0x8041606fb7,%rbx
  80416005ce:	00 00 00 
  80416005d1:	ff d3                	call   *%rbx
        cprintf("END: %p\n", end);
  80416005d3:	48 be 00 60 e4 41 80 	movabs $0x8041e46000,%rsi
  80416005da:	00 00 00 
  80416005dd:	48 bf 7e a1 60 41 80 	movabs $0x804160a17e,%rdi
  80416005e4:	00 00 00 
  80416005e7:	b8 00 00 00 00       	mov    $0x0,%eax
  80416005ec:	ff d3                	call   *%rbx
    init_memory();
  80416005ee:	48 b8 d9 5d 60 41 80 	movabs $0x8041605dd9,%rax
  80416005f5:	00 00 00 
  80416005f8:	ff d0                	call   *%rax
    pic_init();
  80416005fa:	48 b8 ca 6d 60 41 80 	movabs $0x8041606dca,%rax
  8041600601:	00 00 00 
  8041600604:	ff d0                	call   *%rax
    timers_init();
  8041600606:	48 b8 fb 00 60 41 80 	movabs $0x80416000fb,%rax
  804160060d:	00 00 00 
  8041600610:	ff d0                	call   *%rax
    fb_init();
  8041600612:	48 b8 31 0c 60 41 80 	movabs $0x8041600c31,%rax
  8041600619:	00 00 00 
  804160061c:	ff d0                	call   *%rax
    if (trace_init) cprintf("Framebuffer initialised\n");
  804160061e:	48 bf 87 a1 60 41 80 	movabs $0x804160a187,%rdi
  8041600625:	00 00 00 
  8041600628:	b8 00 00 00 00       	mov    $0x0,%eax
  804160062d:	ff d3                	call   *%rbx
    env_init();
  804160062f:	48 b8 24 63 60 41 80 	movabs $0x8041606324,%rax
  8041600636:	00 00 00 
  8041600639:	ff d0                	call   *%rax
    net_init();
  804160063b:	b8 00 00 00 00       	mov    $0x0,%eax
  8041600640:	48 ba 7e 9c 60 41 80 	movabs $0x8041609c7e,%rdx
  8041600647:	00 00 00 
  804160064a:	ff d2                	call   *%rdx
    timers_schedule("hpet0");
  804160064c:	48 bf a0 a1 60 41 80 	movabs $0x804160a1a0,%rdi
  8041600653:	00 00 00 
  8041600656:	48 b8 95 04 60 41 80 	movabs $0x8041600495,%rax
  804160065d:	00 00 00 
  8041600660:	ff d0                	call   *%rax
    ENV_CREATE_KERNEL_TYPE(prog_test1);
  8041600662:	48 bf 10 d9 62 41 80 	movabs $0x804162d910,%rdi
  8041600669:	00 00 00 
  804160066c:	48 be e8 10 63 41 80 	movabs $0x80416310e8,%rsi
  8041600673:	00 00 00 
  8041600676:	48 29 fe             	sub    %rdi,%rsi
  8041600679:	ba 01 00 00 00       	mov    $0x1,%edx
  804160067e:	48 bb f9 64 60 41 80 	movabs $0x80416064f9,%rbx
  8041600685:	00 00 00 
  8041600688:	ff d3                	call   *%rbx
    ENV_CREATE_KERNEL_TYPE(prog_test2);
  804160068a:	48 bf f0 10 63 41 80 	movabs $0x80416310f0,%rdi
  8041600691:	00 00 00 
  8041600694:	48 be b8 49 63 41 80 	movabs $0x80416349b8,%rsi
  804160069b:	00 00 00 
  804160069e:	48 29 fe             	sub    %rdi,%rsi
  80416006a1:	ba 01 00 00 00       	mov    $0x1,%edx
  80416006a6:	ff d3                	call   *%rbx
    ENV_CREATE_KERNEL_TYPE(prog_test3);
  80416006a8:	48 bf c0 49 63 41 80 	movabs $0x80416349c0,%rdi
  80416006af:	00 00 00 
  80416006b2:	48 be 18 82 63 41 80 	movabs $0x8041638218,%rsi
  80416006b9:	00 00 00 
  80416006bc:	48 29 fe             	sub    %rdi,%rsi
  80416006bf:	ba 01 00 00 00       	mov    $0x1,%edx
  80416006c4:	ff d3                	call   *%rbx
    ENV_CREATE_KERNEL_TYPE(prog_test4);
  80416006c6:	48 bf 20 82 63 41 80 	movabs $0x8041638220,%rdi
  80416006cd:	00 00 00 
  80416006d0:	48 be e8 b8 63 41 80 	movabs $0x804163b8e8,%rsi
  80416006d7:	00 00 00 
  80416006da:	48 29 fe             	sub    %rdi,%rsi
  80416006dd:	ba 01 00 00 00       	mov    $0x1,%edx
  80416006e2:	ff d3                	call   *%rbx
    ENV_CREATE_KERNEL_TYPE(prog_test5);
  80416006e4:	48 bf f0 b8 63 41 80 	movabs $0x804163b8f0,%rdi
  80416006eb:	00 00 00 
  80416006ee:	48 be 70 fd 63 41 80 	movabs $0x804163fd70,%rsi
  80416006f5:	00 00 00 
  80416006f8:	48 29 fe             	sub    %rdi,%rsi
  80416006fb:	ba 01 00 00 00       	mov    $0x1,%edx
  8041600700:	ff d3                	call   *%rbx
    ENV_CREATE_KERNEL_TYPE(prog_test6);
  8041600702:	48 bf 80 fd 63 41 80 	movabs $0x804163fd80,%rdi
  8041600709:	00 00 00 
  804160070c:	48 be 00 42 64 41 80 	movabs $0x8041644200,%rsi
  8041600713:	00 00 00 
  8041600716:	48 29 fe             	sub    %rdi,%rsi
  8041600719:	ba 01 00 00 00       	mov    $0x1,%edx
  804160071e:	ff d3                	call   *%rbx
   sched_yield();
  8041600720:	48 b8 2d 84 60 41 80 	movabs $0x804160842d,%rax
  8041600727:	00 00 00 
  804160072a:	ff d0                	call   *%rax

000000804160072c <_warn>:
}

/* Like panic, but don't */
void
_warn(const char *file, int line, const char *fmt, ...) {
  804160072c:	f3 0f 1e fa          	endbr64 
  8041600730:	55                   	push   %rbp
  8041600731:	48 89 e5             	mov    %rsp,%rbp
  8041600734:	41 54                	push   %r12
  8041600736:	53                   	push   %rbx
  8041600737:	48 83 ec 50          	sub    $0x50,%rsp
  804160073b:	48 89 d3             	mov    %rdx,%rbx
  804160073e:	48 89 4d d8          	mov    %rcx,-0x28(%rbp)
  8041600742:	4c 89 45 e0          	mov    %r8,-0x20(%rbp)
  8041600746:	4c 89 4d e8          	mov    %r9,-0x18(%rbp)
    va_list ap;

    va_start(ap, fmt);
  804160074a:	c7 45 a8 18 00 00 00 	movl   $0x18,-0x58(%rbp)
  8041600751:	48 8d 45 10          	lea    0x10(%rbp),%rax
  8041600755:	48 89 45 b0          	mov    %rax,-0x50(%rbp)
  8041600759:	48 8d 45 c0          	lea    -0x40(%rbp),%rax
  804160075d:	48 89 45 b8          	mov    %rax,-0x48(%rbp)
    cprintf("kernel warning at %s:%d: ", file, line);
  8041600761:	89 f2                	mov    %esi,%edx
  8041600763:	48 89 fe             	mov    %rdi,%rsi
  8041600766:	48 bf a6 a1 60 41 80 	movabs $0x804160a1a6,%rdi
  804160076d:	00 00 00 
  8041600770:	b8 00 00 00 00       	mov    $0x0,%eax
  8041600775:	49 bc b7 6f 60 41 80 	movabs $0x8041606fb7,%r12
  804160077c:	00 00 00 
  804160077f:	41 ff d4             	call   *%r12
    vcprintf(fmt, ap);
  8041600782:	48 8d 75 a8          	lea    -0x58(%rbp),%rsi
  8041600786:	48 89 df             	mov    %rbx,%rdi
  8041600789:	48 b8 7f 6f 60 41 80 	movabs $0x8041606f7f,%rax
  8041600790:	00 00 00 
  8041600793:	ff d0                	call   *%rax
    cprintf("\n");
  8041600795:	48 bf f0 a1 60 41 80 	movabs $0x804160a1f0,%rdi
  804160079c:	00 00 00 
  804160079f:	b8 00 00 00 00       	mov    $0x0,%eax
  80416007a4:	41 ff d4             	call   *%r12
    va_end(ap);
}
  80416007a7:	48 83 c4 50          	add    $0x50,%rsp
  80416007ab:	5b                   	pop    %rbx
  80416007ac:	41 5c                	pop    %r12
  80416007ae:	5d                   	pop    %rbp
  80416007af:	c3                   	ret    

00000080416007b0 <serial_proc_data>:
    inb(0x84);
    inb(0x84);
}

static int
serial_proc_data(void) {
  80416007b0:	f3 0f 1e fa          	endbr64 
}

static inline uint8_t __attribute__((always_inline))
inb(int port) {
    uint8_t data;
    asm volatile("inb %w1,%0"
  80416007b4:	ba fd 03 00 00       	mov    $0x3fd,%edx
  80416007b9:	ec                   	in     (%dx),%al
    if (!(inb(COM1 + COM_LSR) & COM_LSR_DATA)) return -1;
  80416007ba:	a8 01                	test   $0x1,%al
  80416007bc:	74 0a                	je     80416007c8 <serial_proc_data+0x18>
  80416007be:	ba f8 03 00 00       	mov    $0x3f8,%edx
  80416007c3:	ec                   	in     (%dx),%al
    return inb(COM1 + COM_RX);
  80416007c4:	0f b6 c0             	movzbl %al,%eax
  80416007c7:	c3                   	ret    
    if (!(inb(COM1 + COM_LSR) & COM_LSR_DATA)) return -1;
  80416007c8:	b8 ff ff ff ff       	mov    $0xffffffff,%eax
}
  80416007cd:	c3                   	ret    

00000080416007ce <cons_intr>:
} cons;

/* called by device interrupt routines to feed input characters
 * into the circular console input buffer */
static void
cons_intr(int (*proc)(void)) {
  80416007ce:	f3 0f 1e fa          	endbr64 
  80416007d2:	55                   	push   %rbp
  80416007d3:	48 89 e5             	mov    %rsp,%rbp
  80416007d6:	41 54                	push   %r12
  80416007d8:	53                   	push   %rbx
  80416007d9:	49 89 fc             	mov    %rdi,%r12
    int ch;

    while ((ch = (*proc)()) != -1) {
        if (!ch) continue;
        cons.buf[cons.wpos++] = ch;
  80416007dc:	48 bb 40 00 80 41 80 	movabs $0x8041800040,%rbx
  80416007e3:	00 00 00 
    while ((ch = (*proc)()) != -1) {
  80416007e6:	eb 22                	jmp    804160080a <cons_intr+0x3c>
        cons.buf[cons.wpos++] = ch;
  80416007e8:	8b 8b 04 02 00 00    	mov    0x204(%rbx),%ecx
  80416007ee:	8d 51 01             	lea    0x1(%rcx),%edx
  80416007f1:	89 c9                	mov    %ecx,%ecx
  80416007f3:	88 04 0b             	mov    %al,(%rbx,%rcx,1)
        if (cons.wpos == CONSBUFSIZE) cons.wpos = 0;
  80416007f6:	81 fa 00 02 00 00    	cmp    $0x200,%edx
  80416007fc:	b8 00 00 00 00       	mov    $0x0,%eax
  8041600801:	0f 44 d0             	cmove  %eax,%edx
  8041600804:	89 93 04 02 00 00    	mov    %edx,0x204(%rbx)
    while ((ch = (*proc)()) != -1) {
  804160080a:	41 ff d4             	call   *%r12
  804160080d:	83 f8 ff             	cmp    $0xffffffff,%eax
  8041600810:	74 06                	je     8041600818 <cons_intr+0x4a>
        if (!ch) continue;
  8041600812:	85 c0                	test   %eax,%eax
  8041600814:	75 d2                	jne    80416007e8 <cons_intr+0x1a>
  8041600816:	eb f2                	jmp    804160080a <cons_intr+0x3c>
    }
}
  8041600818:	5b                   	pop    %rbx
  8041600819:	41 5c                	pop    %r12
  804160081b:	5d                   	pop    %rbp
  804160081c:	c3                   	ret    

000000804160081d <kbd_proc_data>:
kbd_proc_data(void) {
  804160081d:	f3 0f 1e fa          	endbr64 
  8041600821:	55                   	push   %rbp
  8041600822:	48 89 e5             	mov    %rsp,%rbp
  8041600825:	53                   	push   %rbx
  8041600826:	48 83 ec 08          	sub    $0x8,%rsp
  804160082a:	ba 64 00 00 00       	mov    $0x64,%edx
  804160082f:	ec                   	in     (%dx),%al
    if (!(inb(KBSTATP) & KBS_DIB)) return -1;
  8041600830:	a8 01                	test   $0x1,%al
  8041600832:	0f 84 30 01 00 00    	je     8041600968 <kbd_proc_data+0x14b>
  8041600838:	ba 60 00 00 00       	mov    $0x60,%edx
  804160083d:	ec                   	in     (%dx),%al
  804160083e:	89 c2                	mov    %eax,%edx
  8041600840:	89 c1                	mov    %eax,%ecx
    if (data == 0xE0) {
  8041600842:	3c e0                	cmp    $0xe0,%al
  8041600844:	0f 84 83 00 00 00    	je     80416008cd <kbd_proc_data+0xb0>
    } else if (data & 0x80) {
  804160084a:	84 c0                	test   %al,%al
  804160084c:	0f 88 95 00 00 00    	js     80416008e7 <kbd_proc_data+0xca>
    } else if (shift & E0ESC) {
  8041600852:	a1 20 00 80 41 80 00 	movabs 0x8041800020,%eax
  8041600859:	00 00 
  804160085b:	a8 40                	test   $0x40,%al
  804160085d:	74 0f                	je     804160086e <kbd_proc_data+0x51>
        data |= 0x80;
  804160085f:	83 c9 80             	or     $0xffffff80,%ecx
        shift &= ~E0ESC;
  8041600862:	83 e0 bf             	and    $0xffffffbf,%eax
  8041600865:	a3 20 00 80 41 80 00 	movabs %eax,0x8041800020
  804160086c:	00 00 
    shift |= shiftcode[data];
  804160086e:	0f b6 f1             	movzbl %cl,%esi
  8041600871:	48 b8 40 a3 60 41 80 	movabs $0x804160a340,%rax
  8041600878:	00 00 00 
  804160087b:	0f b6 04 30          	movzbl (%rax,%rsi,1),%eax
  804160087f:	48 ba 20 00 80 41 80 	movabs $0x8041800020,%rdx
  8041600886:	00 00 00 
  8041600889:	0b 02                	or     (%rdx),%eax
    shift ^= togglecode[data];
  804160088b:	48 bf 40 a2 60 41 80 	movabs $0x804160a240,%rdi
  8041600892:	00 00 00 
  8041600895:	0f b6 34 37          	movzbl (%rdi,%rsi,1),%esi
  8041600899:	31 f0                	xor    %esi,%eax
  804160089b:	89 02                	mov    %eax,(%rdx)
    c = charcode[shift & (CTL | SHIFT)][data];
  804160089d:	89 c6                	mov    %eax,%esi
  804160089f:	83 e6 03             	and    $0x3,%esi
  80416008a2:	0f b6 c9             	movzbl %cl,%ecx
  80416008a5:	48 ba 20 a2 60 41 80 	movabs $0x804160a220,%rdx
  80416008ac:	00 00 00 
  80416008af:	48 8b 14 f2          	mov    (%rdx,%rsi,8),%rdx
  80416008b3:	0f b6 14 0a          	movzbl (%rdx,%rcx,1),%edx
  80416008b7:	0f b6 da             	movzbl %dl,%ebx
    if (shift & CAPSLOCK) {
  80416008ba:	a8 08                	test   $0x8,%al
  80416008bc:	74 71                	je     804160092f <kbd_proc_data+0x112>
        if ('a' <= c && c <= 'z')
  80416008be:	89 da                	mov    %ebx,%edx
  80416008c0:	8d 4b 9f             	lea    -0x61(%rbx),%ecx
  80416008c3:	83 f9 19             	cmp    $0x19,%ecx
  80416008c6:	77 5b                	ja     8041600923 <kbd_proc_data+0x106>
            c += 'A' - 'a';
  80416008c8:	83 eb 20             	sub    $0x20,%ebx
    if (!(~shift & (CTL | ALT)) && c == KEY_DEL) {
  80416008cb:	eb 12                	jmp    80416008df <kbd_proc_data+0xc2>
        shift |= E0ESC;
  80416008cd:	48 b8 20 00 80 41 80 	movabs $0x8041800020,%rax
  80416008d4:	00 00 00 
  80416008d7:	83 08 40             	orl    $0x40,(%rax)
        return 0;
  80416008da:	bb 00 00 00 00       	mov    $0x0,%ebx
}
  80416008df:	89 d8                	mov    %ebx,%eax
  80416008e1:	48 8b 5d f8          	mov    -0x8(%rbp),%rbx
  80416008e5:	c9                   	leave  
  80416008e6:	c3                   	ret    
        data = (shift & E0ESC ? data : data & 0x7F);
  80416008e7:	a1 20 00 80 41 80 00 	movabs 0x8041800020,%eax
  80416008ee:	00 00 
  80416008f0:	83 e2 7f             	and    $0x7f,%edx
  80416008f3:	a8 40                	test   $0x40,%al
  80416008f5:	0f 44 ca             	cmove  %edx,%ecx
        shift &= ~(shiftcode[data] | E0ESC);
  80416008f8:	0f b6 c9             	movzbl %cl,%ecx
  80416008fb:	48 ba 40 a3 60 41 80 	movabs $0x804160a340,%rdx
  8041600902:	00 00 00 
  8041600905:	0f b6 14 0a          	movzbl (%rdx,%rcx,1),%edx
  8041600909:	83 ca 40             	or     $0x40,%edx
  804160090c:	0f b6 d2             	movzbl %dl,%edx
  804160090f:	f7 d2                	not    %edx
  8041600911:	21 d0                	and    %edx,%eax
  8041600913:	a3 20 00 80 41 80 00 	movabs %eax,0x8041800020
  804160091a:	00 00 
        return 0;
  804160091c:	bb 00 00 00 00       	mov    $0x0,%ebx
  8041600921:	eb bc                	jmp    80416008df <kbd_proc_data+0xc2>
        else if ('A' <= c && c <= 'Z')
  8041600923:	83 ea 41             	sub    $0x41,%edx
            c += 'a' - 'A';
  8041600926:	8d 4b 20             	lea    0x20(%rbx),%ecx
  8041600929:	83 fa 1a             	cmp    $0x1a,%edx
  804160092c:	0f 42 d9             	cmovb  %ecx,%ebx
    if (!(~shift & (CTL | ALT)) && c == KEY_DEL) {
  804160092f:	f7 d0                	not    %eax
  8041600931:	a8 06                	test   $0x6,%al
  8041600933:	75 aa                	jne    80416008df <kbd_proc_data+0xc2>
  8041600935:	81 fb e9 00 00 00    	cmp    $0xe9,%ebx
  804160093b:	75 a2                	jne    80416008df <kbd_proc_data+0xc2>
        cprintf("Rebooting!\n");
  804160093d:	48 bf e6 a1 60 41 80 	movabs $0x804160a1e6,%rdi
  8041600944:	00 00 00 
  8041600947:	b8 00 00 00 00       	mov    $0x0,%eax
  804160094c:	48 ba b7 6f 60 41 80 	movabs $0x8041606fb7,%rdx
  8041600953:	00 00 00 
  8041600956:	ff d2                	call   *%rdx
                 : "memory", "cc");
}

static inline void __attribute__((always_inline))
outb(int port, uint8_t data) {
    asm volatile("outb %0,%w1" ::"a"(data), "d"(port));
  8041600958:	b8 03 00 00 00       	mov    $0x3,%eax
  804160095d:	ba 92 00 00 00       	mov    $0x92,%edx
  8041600962:	ee                   	out    %al,(%dx)
}
  8041600963:	e9 77 ff ff ff       	jmp    80416008df <kbd_proc_data+0xc2>
    if (!(inb(KBSTATP) & KBS_DIB)) return -1;
  8041600968:	bb ff ff ff ff       	mov    $0xffffffff,%ebx
  804160096d:	e9 6d ff ff ff       	jmp    80416008df <kbd_proc_data+0xc2>

0000008041600972 <draw_char>:
draw_char(uint32_t *buffer, uint32_t x, uint32_t y, uint32_t color, uint8_t charcode) {
  8041600972:	f3 0f 1e fa          	endbr64 
  8041600976:	49 89 f9             	mov    %rdi,%r9
  8041600979:	41 89 d2             	mov    %edx,%r10d
  804160097c:	89 cf                	mov    %ecx,%edi
    uint32_t *buf = buffer + uefi_stride * SYMBOL_SIZE * y + SYMBOL_SIZE * x;
  804160097e:	a1 54 02 80 41 80 00 	movabs 0x8041800254,%eax
  8041600985:	00 00 
    char *chr = font8x8_basic[(unsigned)charcode];
  8041600987:	45 0f b6 c0          	movzbl %r8b,%r8d
  804160098b:	48 ba 20 d3 62 41 80 	movabs $0x804162d320,%rdx
  8041600992:	00 00 00 
  8041600995:	4a 8d 14 c2          	lea    (%rdx,%r8,8),%rdx
  8041600999:	41 89 c0             	mov    %eax,%r8d
  804160099c:	49 c1 e0 02          	shl    $0x2,%r8
    uint32_t *buf = buffer + uefi_stride * SYMBOL_SIZE * y + SYMBOL_SIZE * x;
  80416009a0:	41 0f af c2          	imul   %r10d,%eax
  80416009a4:	c1 e0 03             	shl    $0x3,%eax
  80416009a7:	89 c0                	mov    %eax,%eax
  80416009a9:	8d 0c f5 00 00 00 00 	lea    0x0(,%rsi,8),%ecx
  80416009b0:	89 c9                	mov    %ecx,%ecx
  80416009b2:	48 01 c8             	add    %rcx,%rax
  80416009b5:	49 8d 34 81          	lea    (%r9,%rax,4),%rsi
  80416009b9:	4c 8d 4a 08          	lea    0x8(%rdx),%r9
        for (size_t width = 0; width < 8; width++) {
  80416009bd:	b9 00 00 00 00       	mov    $0x0,%ecx
            buf[uefi_stride * heigth + width] = color * ((chr[heigth] >> width) & 1);
  80416009c2:	0f be 02             	movsbl (%rdx),%eax
  80416009c5:	d3 f8                	sar    %cl,%eax
  80416009c7:	83 e0 01             	and    $0x1,%eax
  80416009ca:	0f af c7             	imul   %edi,%eax
  80416009cd:	89 04 8e             	mov    %eax,(%rsi,%rcx,4)
        for (size_t width = 0; width < 8; width++) {
  80416009d0:	48 83 c1 01          	add    $0x1,%rcx
  80416009d4:	48 83 f9 08          	cmp    $0x8,%rcx
  80416009d8:	75 e8                	jne    80416009c2 <draw_char+0x50>
    for (size_t heigth = 0; heigth < 8; heigth++) {
  80416009da:	48 83 c2 01          	add    $0x1,%rdx
  80416009de:	4c 01 c6             	add    %r8,%rsi
  80416009e1:	4c 39 ca             	cmp    %r9,%rdx
  80416009e4:	75 d7                	jne    80416009bd <draw_char+0x4b>
}
  80416009e6:	c3                   	ret    

00000080416009e7 <fb_putc>:
fb_putc(int c) {
  80416009e7:	f3 0f 1e fa          	endbr64 
    if (!graphics_exists) return;
  80416009eb:	48 b8 5c 02 80 41 80 	movabs $0x804180025c,%rax
  80416009f2:	00 00 00 
  80416009f5:	80 38 00             	cmpb   $0x0,(%rax)
  80416009f8:	0f 84 32 02 00 00    	je     8041600c30 <fb_putc+0x249>
fb_putc(int c) {
  80416009fe:	55                   	push   %rbp
  80416009ff:	48 89 e5             	mov    %rsp,%rbp
  8041600a02:	41 55                	push   %r13
  8041600a04:	41 54                	push   %r12
  8041600a06:	53                   	push   %rbx
  8041600a07:	48 83 ec 08          	sub    $0x8,%rsp
    if (!(c & ~0xFF)) c |= 0x0700;
  8041600a0b:	89 f8                	mov    %edi,%eax
  8041600a0d:	80 cc 07             	or     $0x7,%ah
  8041600a10:	f7 c7 00 ff ff ff    	test   $0xffffff00,%edi
  8041600a16:	0f 44 f8             	cmove  %eax,%edi
    switch (c & 0xFF) {
  8041600a19:	44 0f b6 c7          	movzbl %dil,%r8d
  8041600a1d:	40 80 ff 0a          	cmp    $0xa,%dil
  8041600a21:	0f 84 01 01 00 00    	je     8041600b28 <fb_putc+0x141>
  8041600a27:	41 83 f8 0a          	cmp    $0xa,%r8d
  8041600a2b:	7f 43                	jg     8041600a70 <fb_putc+0x89>
  8041600a2d:	41 83 f8 08          	cmp    $0x8,%r8d
  8041600a31:	0f 84 93 00 00 00    	je     8041600aca <fb_putc+0xe3>
  8041600a37:	41 83 f8 09          	cmp    $0x9,%r8d
  8041600a3b:	0f 85 02 01 00 00    	jne    8041600b43 <fb_putc+0x15c>
            fb_putc(' ');
  8041600a41:	bf 20 00 00 00       	mov    $0x20,%edi
  8041600a46:	48 bb e7 09 60 41 80 	movabs $0x80416009e7,%rbx
  8041600a4d:	00 00 00 
  8041600a50:	ff d3                	call   *%rbx
  8041600a52:	bf 20 00 00 00       	mov    $0x20,%edi
  8041600a57:	ff d3                	call   *%rbx
  8041600a59:	bf 20 00 00 00       	mov    $0x20,%edi
  8041600a5e:	ff d3                	call   *%rbx
  8041600a60:	bf 20 00 00 00       	mov    $0x20,%edi
  8041600a65:	ff d3                	call   *%rbx
  8041600a67:	bf 20 00 00 00       	mov    $0x20,%edi
  8041600a6c:	ff d3                	call   *%rbx
        for (size_t i = 0; i < TABW; i++)
  8041600a6e:	eb 30                	jmp    8041600aa0 <fb_putc+0xb9>
    switch (c & 0xFF) {
  8041600a70:	41 83 f8 0d          	cmp    $0xd,%r8d
  8041600a74:	0f 85 c9 00 00 00    	jne    8041600b43 <fb_putc+0x15c>
        crt_pos -= (crt_pos % crt_cols);
  8041600a7a:	48 be 4a 02 80 41 80 	movabs $0x804180024a,%rsi
  8041600a81:	00 00 00 
  8041600a84:	0f b7 0e             	movzwl (%rsi),%ecx
  8041600a87:	0f b7 c1             	movzwl %cx,%eax
  8041600a8a:	48 bb 50 02 80 41 80 	movabs $0x8041800250,%rbx
  8041600a91:	00 00 00 
  8041600a94:	ba 00 00 00 00       	mov    $0x0,%edx
  8041600a99:	f7 33                	divl   (%rbx)
  8041600a9b:	29 d1                	sub    %edx,%ecx
  8041600a9d:	66 89 0e             	mov    %cx,(%rsi)
    if (crt_pos >= crt_size) {
  8041600aa0:	48 b8 4a 02 80 41 80 	movabs $0x804180024a,%rax
  8041600aa7:	00 00 00 
  8041600aaa:	0f b7 10             	movzwl (%rax),%edx
  8041600aad:	48 b8 4c 02 80 41 80 	movabs $0x804180024c,%rax
  8041600ab4:	00 00 00 
  8041600ab7:	3b 10                	cmp    (%rax),%edx
  8041600ab9:	0f 83 d7 00 00 00    	jae    8041600b96 <fb_putc+0x1af>
}
  8041600abf:	48 83 c4 08          	add    $0x8,%rsp
  8041600ac3:	5b                   	pop    %rbx
  8041600ac4:	41 5c                	pop    %r12
  8041600ac6:	41 5d                	pop    %r13
  8041600ac8:	5d                   	pop    %rbp
  8041600ac9:	c3                   	ret    
        if (crt_pos > 0) {
  8041600aca:	66 a1 4a 02 80 41 80 	movabs 0x804180024a,%ax
  8041600ad1:	00 00 00 
  8041600ad4:	66 85 c0             	test   %ax,%ax
  8041600ad7:	74 c7                	je     8041600aa0 <fb_putc+0xb9>
            crt_pos--;
  8041600ad9:	83 e8 01             	sub    $0x1,%eax
  8041600adc:	66 a3 4a 02 80 41 80 	movabs %ax,0x804180024a
  8041600ae3:	00 00 00 
            draw_char(crt_buf, crt_pos % crt_cols, crt_pos / crt_cols, 0x0, 0x8);
  8041600ae6:	0f b7 d0             	movzwl %ax,%edx
  8041600ae9:	48 b8 50 02 80 41 80 	movabs $0x8041800250,%rax
  8041600af0:	00 00 00 
  8041600af3:	8b 08                	mov    (%rax),%ecx
  8041600af5:	89 d0                	mov    %edx,%eax
  8041600af7:	ba 00 00 00 00       	mov    $0x0,%edx
  8041600afc:	f7 f1                	div    %ecx
  8041600afe:	89 d6                	mov    %edx,%esi
  8041600b00:	41 b8 08 00 00 00    	mov    $0x8,%r8d
  8041600b06:	b9 00 00 00 00       	mov    $0x0,%ecx
  8041600b0b:	89 c2                	mov    %eax,%edx
  8041600b0d:	48 bf 00 00 e0 1f 80 	movabs $0x801fe00000,%rdi
  8041600b14:	00 00 00 
  8041600b17:	48 b8 72 09 60 41 80 	movabs $0x8041600972,%rax
  8041600b1e:	00 00 00 
  8041600b21:	ff d0                	call   *%rax
  8041600b23:	e9 78 ff ff ff       	jmp    8041600aa0 <fb_putc+0xb9>
        crt_pos += crt_cols;
  8041600b28:	48 ba 4a 02 80 41 80 	movabs $0x804180024a,%rdx
  8041600b2f:	00 00 00 
  8041600b32:	a1 50 02 80 41 80 00 	movabs 0x8041800250,%eax
  8041600b39:	00 00 
  8041600b3b:	66 01 02             	add    %ax,(%rdx)
  8041600b3e:	e9 37 ff ff ff       	jmp    8041600a7a <fb_putc+0x93>
        draw_char(crt_buf, crt_pos % crt_cols, crt_pos / crt_cols, 0xFFFFFFFF, (uint8_t)c);
  8041600b43:	49 bc 4a 02 80 41 80 	movabs $0x804180024a,%r12
  8041600b4a:	00 00 00 
  8041600b4d:	41 0f b7 1c 24       	movzwl (%r12),%ebx
  8041600b52:	0f b7 d3             	movzwl %bx,%edx
  8041600b55:	48 b8 50 02 80 41 80 	movabs $0x8041800250,%rax
  8041600b5c:	00 00 00 
  8041600b5f:	8b 08                	mov    (%rax),%ecx
  8041600b61:	89 d0                	mov    %edx,%eax
  8041600b63:	ba 00 00 00 00       	mov    $0x0,%edx
  8041600b68:	f7 f1                	div    %ecx
  8041600b6a:	89 d6                	mov    %edx,%esi
  8041600b6c:	b9 ff ff ff ff       	mov    $0xffffffff,%ecx
  8041600b71:	89 c2                	mov    %eax,%edx
  8041600b73:	48 bf 00 00 e0 1f 80 	movabs $0x801fe00000,%rdi
  8041600b7a:	00 00 00 
  8041600b7d:	48 b8 72 09 60 41 80 	movabs $0x8041600972,%rax
  8041600b84:	00 00 00 
  8041600b87:	ff d0                	call   *%rax
        crt_pos++;
  8041600b89:	83 c3 01             	add    $0x1,%ebx
  8041600b8c:	66 41 89 1c 24       	mov    %bx,(%r12)
  8041600b91:	e9 0a ff ff ff       	jmp    8041600aa0 <fb_putc+0xb9>
                      uefi_stride * (uefi_vres - SYMBOL_SIZE) * sizeof(uint32_t));
  8041600b96:	49 bc 54 02 80 41 80 	movabs $0x8041800254,%r12
  8041600b9d:	00 00 00 
  8041600ba0:	41 8b 04 24          	mov    (%r12),%eax
  8041600ba4:	49 bd 58 02 80 41 80 	movabs $0x8041800258,%r13
  8041600bab:	00 00 00 
  8041600bae:	41 8b 75 00          	mov    0x0(%r13),%esi
  8041600bb2:	8d 56 f8             	lea    -0x8(%rsi),%edx
  8041600bb5:	0f af d0             	imul   %eax,%edx
        nosan_memmove(crt_buf, crt_buf + uefi_stride * SYMBOL_SIZE,
  8041600bb8:	48 c1 e2 02          	shl    $0x2,%rdx
  8041600bbc:	c1 e0 03             	shl    $0x3,%eax
  8041600bbf:	89 c0                	mov    %eax,%eax
  8041600bc1:	48 bb 00 00 e0 1f 80 	movabs $0x801fe00000,%rbx
  8041600bc8:	00 00 00 
  8041600bcb:	48 8d 34 83          	lea    (%rbx,%rax,4),%rsi
  8041600bcf:	48 89 df             	mov    %rbx,%rdi
  8041600bd2:	48 b8 0c 94 60 41 80 	movabs $0x804160940c,%rax
  8041600bd9:	00 00 00 
  8041600bdc:	ff d0                	call   *%rax
        size_t i = (uefi_vres - (uefi_vres % SYMBOL_SIZE) - SYMBOL_SIZE);
  8041600bde:	41 8b 45 00          	mov    0x0(%r13),%eax
  8041600be2:	89 c1                	mov    %eax,%ecx
  8041600be4:	83 e1 f8             	and    $0xfffffff8,%ecx
  8041600be7:	83 e9 08             	sub    $0x8,%ecx
  8041600bea:	89 c9                	mov    %ecx,%ecx
        nosan_memset(crt_buf + i * uefi_stride, 0, uefi_stride * (uefi_vres - i) * sizeof(uint32_t));
  8041600bec:	41 8b 3c 24          	mov    (%r12),%edi
  8041600bf0:	48 c1 e7 02          	shl    $0x2,%rdi
  8041600bf4:	89 c2                	mov    %eax,%edx
  8041600bf6:	48 29 ca             	sub    %rcx,%rdx
  8041600bf9:	48 0f af d7          	imul   %rdi,%rdx
  8041600bfd:	48 0f af f9          	imul   %rcx,%rdi
  8041600c01:	48 01 df             	add    %rbx,%rdi
  8041600c04:	be 00 00 00 00       	mov    $0x0,%esi
  8041600c09:	48 b8 5e 93 60 41 80 	movabs $0x804160935e,%rax
  8041600c10:	00 00 00 
  8041600c13:	ff d0                	call   *%rax
        crt_pos -= crt_cols;
  8041600c15:	48 ba 4a 02 80 41 80 	movabs $0x804180024a,%rdx
  8041600c1c:	00 00 00 
  8041600c1f:	a1 50 02 80 41 80 00 	movabs 0x8041800250,%eax
  8041600c26:	00 00 
  8041600c28:	66 29 02             	sub    %ax,(%rdx)
  8041600c2b:	e9 8f fe ff ff       	jmp    8041600abf <fb_putc+0xd8>
  8041600c30:	c3                   	ret    

0000008041600c31 <fb_init>:
fb_init(void) {
  8041600c31:	f3 0f 1e fa          	endbr64 
  8041600c35:	55                   	push   %rbp
  8041600c36:	48 89 e5             	mov    %rsp,%rbp
    LOADER_PARAMS *lp = (LOADER_PARAMS *)uefi_lp;
  8041600c39:	48 b8 00 d0 62 41 80 	movabs $0x804162d000,%rax
  8041600c40:	00 00 00 
  8041600c43:	48 8b 30             	mov    (%rax),%rsi
    uefi_vres = lp->VerticalResolution;
  8041600c46:	8b 56 50             	mov    0x50(%rsi),%edx
  8041600c49:	89 d0                	mov    %edx,%eax
  8041600c4b:	a3 58 02 80 41 80 00 	movabs %eax,0x8041800258
  8041600c52:	00 00 
    uefi_stride = lp->PixelsPerScanLine;
  8041600c54:	8b 46 4c             	mov    0x4c(%rsi),%eax
  8041600c57:	a3 54 02 80 41 80 00 	movabs %eax,0x8041800254
  8041600c5e:	00 00 
    crt_cols = uefi_hres / SYMBOL_SIZE;
  8041600c60:	8b 4e 54             	mov    0x54(%rsi),%ecx
  8041600c63:	c1 e9 03             	shr    $0x3,%ecx
  8041600c66:	89 c8                	mov    %ecx,%eax
  8041600c68:	a3 50 02 80 41 80 00 	movabs %eax,0x8041800250
  8041600c6f:	00 00 
    crt_rows = uefi_vres / SYMBOL_SIZE;
  8041600c71:	89 d0                	mov    %edx,%eax
  8041600c73:	c1 e8 03             	shr    $0x3,%eax
    crt_size = crt_rows * crt_cols;
  8041600c76:	0f af c1             	imul   %ecx,%eax
  8041600c79:	a3 4c 02 80 41 80 00 	movabs %eax,0x804180024c
  8041600c80:	00 00 
    crt_pos = crt_cols;
  8041600c82:	89 c8                	mov    %ecx,%eax
  8041600c84:	66 a3 4a 02 80 41 80 	movabs %ax,0x804180024a
  8041600c8b:	00 00 00 
    memset(crt_buf, 0, lp->FrameBufferSize);
  8041600c8e:	8b 56 48             	mov    0x48(%rsi),%edx
  8041600c91:	be 00 00 00 00       	mov    $0x0,%esi
  8041600c96:	48 bf 00 00 e0 1f 80 	movabs $0x801fe00000,%rdi
  8041600c9d:	00 00 00 
  8041600ca0:	48 b8 5e 93 60 41 80 	movabs $0x804160935e,%rax
  8041600ca7:	00 00 00 
  8041600caa:	ff d0                	call   *%rax
    graphics_exists = true;
  8041600cac:	48 b8 5c 02 80 41 80 	movabs $0x804180025c,%rax
  8041600cb3:	00 00 00 
  8041600cb6:	c6 00 01             	movb   $0x1,(%rax)
}
  8041600cb9:	5d                   	pop    %rbp
  8041600cba:	c3                   	ret    

0000008041600cbb <serial_intr>:
serial_intr(void) {
  8041600cbb:	f3 0f 1e fa          	endbr64 
    if (serial_exists) cons_intr(serial_proc_data);
  8041600cbf:	48 b8 48 02 80 41 80 	movabs $0x8041800248,%rax
  8041600cc6:	00 00 00 
  8041600cc9:	80 38 00             	cmpb   $0x0,(%rax)
  8041600ccc:	75 01                	jne    8041600ccf <serial_intr+0x14>
  8041600cce:	c3                   	ret    
serial_intr(void) {
  8041600ccf:	55                   	push   %rbp
  8041600cd0:	48 89 e5             	mov    %rsp,%rbp
    if (serial_exists) cons_intr(serial_proc_data);
  8041600cd3:	48 bf b0 07 60 41 80 	movabs $0x80416007b0,%rdi
  8041600cda:	00 00 00 
  8041600cdd:	48 b8 ce 07 60 41 80 	movabs $0x80416007ce,%rax
  8041600ce4:	00 00 00 
  8041600ce7:	ff d0                	call   *%rax
}
  8041600ce9:	5d                   	pop    %rbp
  8041600cea:	c3                   	ret    

0000008041600ceb <kbd_intr>:
kbd_intr(void) {
  8041600ceb:	f3 0f 1e fa          	endbr64 
  8041600cef:	55                   	push   %rbp
  8041600cf0:	48 89 e5             	mov    %rsp,%rbp
    cons_intr(kbd_proc_data);
  8041600cf3:	48 bf 1d 08 60 41 80 	movabs $0x804160081d,%rdi
  8041600cfa:	00 00 00 
  8041600cfd:	48 b8 ce 07 60 41 80 	movabs $0x80416007ce,%rax
  8041600d04:	00 00 00 
  8041600d07:	ff d0                	call   *%rax
}
  8041600d09:	5d                   	pop    %rbp
  8041600d0a:	c3                   	ret    

0000008041600d0b <cons_getc>:

/* Return the next input character from the console, or 0 if none waiting */
int
cons_getc(void) {
  8041600d0b:	f3 0f 1e fa          	endbr64 
  8041600d0f:	55                   	push   %rbp
  8041600d10:	48 89 e5             	mov    %rsp,%rbp

    /* Poll for any pending input characters,
     * so that this function works even when interrupts are disabled
     * (e.g., when called from the kernel monitor) */
    serial_intr();
  8041600d13:	48 b8 bb 0c 60 41 80 	movabs $0x8041600cbb,%rax
  8041600d1a:	00 00 00 
  8041600d1d:	ff d0                	call   *%rax
    kbd_intr();
  8041600d1f:	48 b8 eb 0c 60 41 80 	movabs $0x8041600ceb,%rax
  8041600d26:	00 00 00 
  8041600d29:	ff d0                	call   *%rax

    /* Grab the next character from the input buffer */
    if (cons.rpos != cons.wpos) {
  8041600d2b:	48 ba 40 00 80 41 80 	movabs $0x8041800040,%rdx
  8041600d32:	00 00 00 
  8041600d35:	8b 82 00 02 00 00    	mov    0x200(%rdx),%eax
        uint8_t ch = cons.buf[cons.rpos++];
        cons.rpos %= CONSBUFSIZE;
        return ch;
    }
    return 0;
  8041600d3b:	b9 00 00 00 00       	mov    $0x0,%ecx
    if (cons.rpos != cons.wpos) {
  8041600d40:	3b 82 04 02 00 00    	cmp    0x204(%rdx),%eax
  8041600d46:	74 14                	je     8041600d5c <cons_getc+0x51>
        uint8_t ch = cons.buf[cons.rpos++];
  8041600d48:	89 c1                	mov    %eax,%ecx
  8041600d4a:	83 c0 01             	add    $0x1,%eax
        cons.rpos %= CONSBUFSIZE;
  8041600d4d:	25 ff 01 00 00       	and    $0x1ff,%eax
  8041600d52:	89 82 00 02 00 00    	mov    %eax,0x200(%rdx)
        return ch;
  8041600d58:	0f b6 0c 0a          	movzbl (%rdx,%rcx,1),%ecx
}
  8041600d5c:	89 c8                	mov    %ecx,%eax
  8041600d5e:	5d                   	pop    %rbp
  8041600d5f:	c3                   	ret    

0000008041600d60 <cons_init>:
    fb_putc(c);
}

/* Initialize the console devices */
void
cons_init(void) {
  8041600d60:	f3 0f 1e fa          	endbr64 
    asm volatile("outb %0,%w1" ::"a"(data), "d"(port));
  8041600d64:	b9 00 00 00 00       	mov    $0x0,%ecx
  8041600d69:	bf fa 03 00 00       	mov    $0x3fa,%edi
  8041600d6e:	89 c8                	mov    %ecx,%eax
  8041600d70:	89 fa                	mov    %edi,%edx
  8041600d72:	ee                   	out    %al,(%dx)
  8041600d73:	41 b9 fb 03 00 00    	mov    $0x3fb,%r9d
  8041600d79:	b8 80 ff ff ff       	mov    $0xffffff80,%eax
  8041600d7e:	44 89 ca             	mov    %r9d,%edx
  8041600d81:	ee                   	out    %al,(%dx)
  8041600d82:	be f8 03 00 00       	mov    $0x3f8,%esi
  8041600d87:	b8 0c 00 00 00       	mov    $0xc,%eax
  8041600d8c:	89 f2                	mov    %esi,%edx
  8041600d8e:	ee                   	out    %al,(%dx)
  8041600d8f:	41 b8 f9 03 00 00    	mov    $0x3f9,%r8d
  8041600d95:	89 c8                	mov    %ecx,%eax
  8041600d97:	44 89 c2             	mov    %r8d,%edx
  8041600d9a:	ee                   	out    %al,(%dx)
  8041600d9b:	b8 03 00 00 00       	mov    $0x3,%eax
  8041600da0:	44 89 ca             	mov    %r9d,%edx
  8041600da3:	ee                   	out    %al,(%dx)
  8041600da4:	ba fc 03 00 00       	mov    $0x3fc,%edx
  8041600da9:	89 c8                	mov    %ecx,%eax
  8041600dab:	ee                   	out    %al,(%dx)
  8041600dac:	b8 01 00 00 00       	mov    $0x1,%eax
  8041600db1:	44 89 c2             	mov    %r8d,%edx
  8041600db4:	ee                   	out    %al,(%dx)
    asm volatile("inb %w1,%0"
  8041600db5:	ba fd 03 00 00       	mov    $0x3fd,%edx
  8041600dba:	ec                   	in     (%dx),%al
  8041600dbb:	89 c1                	mov    %eax,%ecx
    serial_exists = (inb(COM1 + COM_LSR) != 0xFF);
  8041600dbd:	3c ff                	cmp    $0xff,%al
  8041600dbf:	0f 95 c0             	setne  %al
  8041600dc2:	a2 48 02 80 41 80 00 	movabs %al,0x8041800248
  8041600dc9:	00 00 
  8041600dcb:	89 fa                	mov    %edi,%edx
  8041600dcd:	ec                   	in     (%dx),%al
  8041600dce:	89 f2                	mov    %esi,%edx
  8041600dd0:	ec                   	in     (%dx),%al
    kbd_init();
    serial_init();

    if (!serial_exists)
  8041600dd1:	80 f9 ff             	cmp    $0xff,%cl
  8041600dd4:	74 01                	je     8041600dd7 <cons_init+0x77>
  8041600dd6:	c3                   	ret    
cons_init(void) {
  8041600dd7:	55                   	push   %rbp
  8041600dd8:	48 89 e5             	mov    %rsp,%rbp
        cprintf("Serial port does not exist!\n");
  8041600ddb:	48 bf f2 a1 60 41 80 	movabs $0x804160a1f2,%rdi
  8041600de2:	00 00 00 
  8041600de5:	b8 00 00 00 00       	mov    $0x0,%eax
  8041600dea:	48 ba b7 6f 60 41 80 	movabs $0x8041606fb7,%rdx
  8041600df1:	00 00 00 
  8041600df4:	ff d2                	call   *%rdx
}
  8041600df6:	5d                   	pop    %rbp
  8041600df7:	c3                   	ret    

0000008041600df8 <cputchar>:

/* `High'-level console I/O.  Used by readline and cprintf. */

void
cputchar(int c) {
  8041600df8:	f3 0f 1e fa          	endbr64 
  8041600dfc:	55                   	push   %rbp
  8041600dfd:	48 89 e5             	mov    %rsp,%rbp
    c &= 0x7F;
  8041600e00:	83 e7 7f             	and    $0x7f,%edi
  8041600e03:	41 89 f8             	mov    %edi,%r8d
  8041600e06:	ba fd 03 00 00       	mov    $0x3fd,%edx
  8041600e0b:	ec                   	in     (%dx),%al
        if (inb(COM1 + COM_LSR) & COM_LSR_TXRDY) break;
  8041600e0c:	a8 20                	test   $0x20,%al
  8041600e0e:	75 22                	jne    8041600e32 <cputchar+0x3a>
  8041600e10:	be 00 32 00 00       	mov    $0x3200,%esi
  8041600e15:	b9 84 00 00 00       	mov    $0x84,%ecx
  8041600e1a:	bf fd 03 00 00       	mov    $0x3fd,%edi
  8041600e1f:	89 ca                	mov    %ecx,%edx
  8041600e21:	ec                   	in     (%dx),%al
  8041600e22:	ec                   	in     (%dx),%al
  8041600e23:	ec                   	in     (%dx),%al
  8041600e24:	ec                   	in     (%dx),%al
    for (size_t i = 0; i < 12800; i++) {
  8041600e25:	48 83 ee 01          	sub    $0x1,%rsi
  8041600e29:	74 07                	je     8041600e32 <cputchar+0x3a>
  8041600e2b:	89 fa                	mov    %edi,%edx
  8041600e2d:	ec                   	in     (%dx),%al
        if (inb(COM1 + COM_LSR) & COM_LSR_TXRDY) break;
  8041600e2e:	a8 20                	test   $0x20,%al
  8041600e30:	74 ed                	je     8041600e1f <cputchar+0x27>
    outb(COM1 + COM_TX, c);
  8041600e32:	45 89 c1             	mov    %r8d,%r9d
    asm volatile("outb %0,%w1" ::"a"(data), "d"(port));
  8041600e35:	ba f8 03 00 00       	mov    $0x3f8,%edx
  8041600e3a:	44 89 c0             	mov    %r8d,%eax
  8041600e3d:	ee                   	out    %al,(%dx)
    asm volatile("inb %w1,%0"
  8041600e3e:	ba 79 03 00 00       	mov    $0x379,%edx
  8041600e43:	ec                   	in     (%dx),%al
        if (inb(0x378 + 1) & 0x80) break;
  8041600e44:	84 c0                	test   %al,%al
  8041600e46:	78 22                	js     8041600e6a <cputchar+0x72>
  8041600e48:	be 00 32 00 00       	mov    $0x3200,%esi
  8041600e4d:	b9 84 00 00 00       	mov    $0x84,%ecx
  8041600e52:	bf 79 03 00 00       	mov    $0x379,%edi
  8041600e57:	89 ca                	mov    %ecx,%edx
  8041600e59:	ec                   	in     (%dx),%al
  8041600e5a:	ec                   	in     (%dx),%al
  8041600e5b:	ec                   	in     (%dx),%al
  8041600e5c:	ec                   	in     (%dx),%al
    for (size_t i = 0; i < 12800; i++) {
  8041600e5d:	48 83 ee 01          	sub    $0x1,%rsi
  8041600e61:	74 07                	je     8041600e6a <cputchar+0x72>
  8041600e63:	89 fa                	mov    %edi,%edx
  8041600e65:	ec                   	in     (%dx),%al
        if (inb(0x378 + 1) & 0x80) break;
  8041600e66:	84 c0                	test   %al,%al
  8041600e68:	79 ed                	jns    8041600e57 <cputchar+0x5f>
    asm volatile("outb %0,%w1" ::"a"(data), "d"(port));
  8041600e6a:	ba 78 03 00 00       	mov    $0x378,%edx
  8041600e6f:	44 89 c8             	mov    %r9d,%eax
  8041600e72:	ee                   	out    %al,(%dx)
  8041600e73:	ba 7a 03 00 00       	mov    $0x37a,%edx
  8041600e78:	b8 0d 00 00 00       	mov    $0xd,%eax
  8041600e7d:	ee                   	out    %al,(%dx)
  8041600e7e:	b8 08 00 00 00       	mov    $0x8,%eax
  8041600e83:	ee                   	out    %al,(%dx)
    fb_putc(c);
  8041600e84:	44 89 c7             	mov    %r8d,%edi
  8041600e87:	48 b8 e7 09 60 41 80 	movabs $0x80416009e7,%rax
  8041600e8e:	00 00 00 
  8041600e91:	ff d0                	call   *%rax
    cons_putc(c);
}
  8041600e93:	5d                   	pop    %rbp
  8041600e94:	c3                   	ret    

0000008041600e95 <getchar>:

int
getchar(void) {
  8041600e95:	f3 0f 1e fa          	endbr64 
  8041600e99:	55                   	push   %rbp
  8041600e9a:	48 89 e5             	mov    %rsp,%rbp
  8041600e9d:	53                   	push   %rbx
  8041600e9e:	48 83 ec 08          	sub    $0x8,%rsp
    int ch;

    while (!(ch = cons_getc()))
  8041600ea2:	48 bb 0b 0d 60 41 80 	movabs $0x8041600d0b,%rbx
  8041600ea9:	00 00 00 
  8041600eac:	ff d3                	call   *%rbx
  8041600eae:	85 c0                	test   %eax,%eax
  8041600eb0:	74 fa                	je     8041600eac <getchar+0x17>
        /* nothing */;

    return ch;
}
  8041600eb2:	48 8b 5d f8          	mov    -0x8(%rbp),%rbx
  8041600eb6:	c9                   	leave  
  8041600eb7:	c3                   	ret    

0000008041600eb8 <iscons>:

int
iscons(int fdnum) {
  8041600eb8:	f3 0f 1e fa          	endbr64 
    /* Used by readline */

    return 1;
}
  8041600ebc:	b8 01 00 00 00       	mov    $0x1,%eax
  8041600ec1:	c3                   	ret    

0000008041600ec2 <dwarf_read_abbrev_entry>:
    return -E_BAD_DWARF;
}

/* Read value from .debug_abbrev table in buf. Returns number of bytes read */
static int
dwarf_read_abbrev_entry(const void *entry, unsigned form, void *buf, int bufsize, size_t address_size) {
  8041600ec2:	f3 0f 1e fa          	endbr64 
  8041600ec6:	55                   	push   %rbp
  8041600ec7:	48 89 e5             	mov    %rsp,%rbp
  8041600eca:	41 56                	push   %r14
  8041600ecc:	41 55                	push   %r13
  8041600ece:	41 54                	push   %r12
  8041600ed0:	53                   	push   %rbx
  8041600ed1:	48 83 ec 30          	sub    $0x30,%rsp
  8041600ed5:	48 89 7d b8          	mov    %rdi,-0x48(%rbp)
    int bytes = 0;
    switch (form) {
  8041600ed9:	83 fe 20             	cmp    $0x20,%esi
  8041600edc:	0f 87 5d 0a 00 00    	ja     804160193f <dwarf_read_abbrev_entry+0xa7d>
  8041600ee2:	49 89 d4             	mov    %rdx,%r12
  8041600ee5:	41 89 cd             	mov    %ecx,%r13d
  8041600ee8:	4c 89 c3             	mov    %r8,%rbx
  8041600eeb:	89 f6                	mov    %esi,%esi
  8041600eed:	48 b8 c0 a4 60 41 80 	movabs $0x804160a4c0,%rax
  8041600ef4:	00 00 00 
  8041600ef7:	3e ff 24 f0          	notrack jmp *(%rax,%rsi,8)
    case DW_FORM_addr: {
        uintptr_t data = 0;
  8041600efb:	48 c7 45 c8 00 00 00 	movq   $0x0,-0x38(%rbp)
  8041600f02:	00 
        memcpy(&data, entry, address_size);
  8041600f03:	4c 89 c2             	mov    %r8,%rdx
  8041600f06:	48 8b 75 b8          	mov    -0x48(%rbp),%rsi
  8041600f0a:	48 8d 7d c8          	lea    -0x38(%rbp),%rdi
  8041600f0e:	48 b8 77 94 60 41 80 	movabs $0x8041609477,%rax
  8041600f15:	00 00 00 
  8041600f18:	ff d0                	call   *%rax
        entry += address_size;
  8041600f1a:	48 01 5d b8          	add    %rbx,-0x48(%rbp)
        if (buf && bufsize >= sizeof(uintptr_t))
  8041600f1e:	4d 85 e4             	test   %r12,%r12
  8041600f21:	74 06                	je     8041600f29 <dwarf_read_abbrev_entry+0x67>
  8041600f23:	41 83 fd 07          	cmp    $0x7,%r13d
  8041600f27:	77 07                	ja     8041600f30 <dwarf_read_abbrev_entry+0x6e>
            put_unaligned(data, (uintptr_t *)buf);
        bytes = address_size;
  8041600f29:	89 d8                	mov    %ebx,%eax
    } break;
  8041600f2b:	e9 14 0a 00 00       	jmp    8041601944 <dwarf_read_abbrev_entry+0xa82>
            put_unaligned(data, (uintptr_t *)buf);
  8041600f30:	48 8b 45 c8          	mov    -0x38(%rbp),%rax
  8041600f34:	48 89 45 d0          	mov    %rax,-0x30(%rbp)
  8041600f38:	ba 08 00 00 00       	mov    $0x8,%edx
  8041600f3d:	48 8d 75 d0          	lea    -0x30(%rbp),%rsi
  8041600f41:	4c 89 e7             	mov    %r12,%rdi
  8041600f44:	48 b8 77 94 60 41 80 	movabs $0x8041609477,%rax
  8041600f4b:	00 00 00 
  8041600f4e:	ff d0                	call   *%rax
  8041600f50:	eb d7                	jmp    8041600f29 <dwarf_read_abbrev_entry+0x67>
    case DW_FORM_block2: {
        /* Read block of 2-byte length followed by 0 to 65535 contiguous information bytes */
        // LAB 2: Your code here
        Dwarf_Half length = get_unaligned(entry, Dwarf_Half);
  8041600f52:	ba 02 00 00 00       	mov    $0x2,%edx
  8041600f57:	48 8b 75 b8          	mov    -0x48(%rbp),%rsi
  8041600f5b:	48 8d 7d d0          	lea    -0x30(%rbp),%rdi
  8041600f5f:	48 b8 77 94 60 41 80 	movabs $0x8041609477,%rax
  8041600f66:	00 00 00 
  8041600f69:	ff d0                	call   *%rax
  8041600f6b:	0f b7 5d d0          	movzwl -0x30(%rbp),%ebx
        entry += sizeof(Dwarf_Half);
  8041600f6f:	48 8b 45 b8          	mov    -0x48(%rbp),%rax
  8041600f73:	48 83 c0 02          	add    $0x2,%rax
  8041600f77:	48 89 45 b8          	mov    %rax,-0x48(%rbp)
        struct Slice slice = {
  8041600f7b:	48 89 45 d0          	mov    %rax,-0x30(%rbp)
  8041600f7f:	0f b7 c3             	movzwl %bx,%eax
  8041600f82:	89 45 d8             	mov    %eax,-0x28(%rbp)
                .mem = entry,
                .len = length,
        };
        if(buf) memcpy(buf, &slice, sizeof(struct Slice));
  8041600f85:	4d 85 e4             	test   %r12,%r12
  8041600f88:	74 18                	je     8041600fa2 <dwarf_read_abbrev_entry+0xe0>
  8041600f8a:	ba 10 00 00 00       	mov    $0x10,%edx
  8041600f8f:	48 8d 75 d0          	lea    -0x30(%rbp),%rsi
  8041600f93:	4c 89 e7             	mov    %r12,%rdi
  8041600f96:	48 b8 77 94 60 41 80 	movabs $0x8041609477,%rax
  8041600f9d:	00 00 00 
  8041600fa0:	ff d0                	call   *%rax
        entry += length;
        bytes = sizeof(Dwarf_Half) + length;
  8041600fa2:	0f b7 db             	movzwl %bx,%ebx
  8041600fa5:	8d 43 02             	lea    0x2(%rbx),%eax
    } break;
  8041600fa8:	e9 97 09 00 00       	jmp    8041601944 <dwarf_read_abbrev_entry+0xa82>
    case DW_FORM_block4: {
        uint32_t length = get_unaligned(entry, uint32_t);
  8041600fad:	ba 04 00 00 00       	mov    $0x4,%edx
  8041600fb2:	48 8b 75 b8          	mov    -0x48(%rbp),%rsi
  8041600fb6:	48 8d 7d d0          	lea    -0x30(%rbp),%rdi
  8041600fba:	48 b8 77 94 60 41 80 	movabs $0x8041609477,%rax
  8041600fc1:	00 00 00 
  8041600fc4:	ff d0                	call   *%rax
  8041600fc6:	8b 5d d0             	mov    -0x30(%rbp),%ebx
        entry += sizeof(uint32_t);
  8041600fc9:	48 8b 45 b8          	mov    -0x48(%rbp),%rax
  8041600fcd:	48 83 c0 04          	add    $0x4,%rax
  8041600fd1:	48 89 45 b8          	mov    %rax,-0x48(%rbp)
        struct Slice slice = {
  8041600fd5:	48 89 45 d0          	mov    %rax,-0x30(%rbp)
  8041600fd9:	89 5d d8             	mov    %ebx,-0x28(%rbp)
                .mem = entry,
                .len = length,
        };
        if (buf) memcpy(buf, &slice, sizeof(struct Slice));
  8041600fdc:	4d 85 e4             	test   %r12,%r12
  8041600fdf:	74 18                	je     8041600ff9 <dwarf_read_abbrev_entry+0x137>
  8041600fe1:	ba 10 00 00 00       	mov    $0x10,%edx
  8041600fe6:	48 8d 75 d0          	lea    -0x30(%rbp),%rsi
  8041600fea:	4c 89 e7             	mov    %r12,%rdi
  8041600fed:	48 b8 77 94 60 41 80 	movabs $0x8041609477,%rax
  8041600ff4:	00 00 00 
  8041600ff7:	ff d0                	call   *%rax
        entry += length;
        bytes = sizeof(uint32_t) + length;
  8041600ff9:	8d 43 04             	lea    0x4(%rbx),%eax
    } break;
  8041600ffc:	e9 43 09 00 00       	jmp    8041601944 <dwarf_read_abbrev_entry+0xa82>
    case DW_FORM_data2: {
        Dwarf_Half data = get_unaligned(entry, Dwarf_Half);
  8041601001:	ba 02 00 00 00       	mov    $0x2,%edx
  8041601006:	48 8b 75 b8          	mov    -0x48(%rbp),%rsi
  804160100a:	48 8d 7d d0          	lea    -0x30(%rbp),%rdi
  804160100e:	48 b8 77 94 60 41 80 	movabs $0x8041609477,%rax
  8041601015:	00 00 00 
  8041601018:	ff d0                	call   *%rax
        entry += sizeof(Dwarf_Half);
  804160101a:	48 83 45 b8 02       	addq   $0x2,-0x48(%rbp)
        if (buf && bufsize >= sizeof(Dwarf_Half))
  804160101f:	4d 85 e4             	test   %r12,%r12
  8041601022:	74 06                	je     804160102a <dwarf_read_abbrev_entry+0x168>
  8041601024:	41 83 fd 01          	cmp    $0x1,%r13d
  8041601028:	77 0a                	ja     8041601034 <dwarf_read_abbrev_entry+0x172>
            put_unaligned(data, (Dwarf_Half *)buf);
        bytes = sizeof(Dwarf_Half);
  804160102a:	b8 02 00 00 00       	mov    $0x2,%eax
  804160102f:	e9 10 09 00 00       	jmp    8041601944 <dwarf_read_abbrev_entry+0xa82>
            put_unaligned(data, (Dwarf_Half *)buf);
  8041601034:	ba 02 00 00 00       	mov    $0x2,%edx
  8041601039:	48 8d 75 d0          	lea    -0x30(%rbp),%rsi
  804160103d:	4c 89 e7             	mov    %r12,%rdi
  8041601040:	48 b8 77 94 60 41 80 	movabs $0x8041609477,%rax
  8041601047:	00 00 00 
  804160104a:	ff d0                	call   *%rax
        bytes = sizeof(Dwarf_Half);
  804160104c:	b8 02 00 00 00       	mov    $0x2,%eax
            put_unaligned(data, (Dwarf_Half *)buf);
  8041601051:	e9 ee 08 00 00       	jmp    8041601944 <dwarf_read_abbrev_entry+0xa82>
    } break;
    case DW_FORM_data4: {
        uint32_t data = get_unaligned(entry, uint32_t);
  8041601056:	ba 04 00 00 00       	mov    $0x4,%edx
  804160105b:	48 8b 75 b8          	mov    -0x48(%rbp),%rsi
  804160105f:	48 8d 7d d0          	lea    -0x30(%rbp),%rdi
  8041601063:	48 b8 77 94 60 41 80 	movabs $0x8041609477,%rax
  804160106a:	00 00 00 
  804160106d:	ff d0                	call   *%rax
        entry += sizeof(uint32_t);
  804160106f:	48 83 45 b8 04       	addq   $0x4,-0x48(%rbp)
        if (buf && bufsize >= sizeof(uint32_t))
  8041601074:	4d 85 e4             	test   %r12,%r12
  8041601077:	74 06                	je     804160107f <dwarf_read_abbrev_entry+0x1bd>
  8041601079:	41 83 fd 03          	cmp    $0x3,%r13d
  804160107d:	77 0a                	ja     8041601089 <dwarf_read_abbrev_entry+0x1c7>
            put_unaligned(data, (uint32_t *)buf);
        bytes = sizeof(uint32_t);
  804160107f:	b8 04 00 00 00       	mov    $0x4,%eax
  8041601084:	e9 bb 08 00 00       	jmp    8041601944 <dwarf_read_abbrev_entry+0xa82>
            put_unaligned(data, (uint32_t *)buf);
  8041601089:	ba 04 00 00 00       	mov    $0x4,%edx
  804160108e:	48 8d 75 d0          	lea    -0x30(%rbp),%rsi
  8041601092:	4c 89 e7             	mov    %r12,%rdi
  8041601095:	48 b8 77 94 60 41 80 	movabs $0x8041609477,%rax
  804160109c:	00 00 00 
  804160109f:	ff d0                	call   *%rax
        bytes = sizeof(uint32_t);
  80416010a1:	b8 04 00 00 00       	mov    $0x4,%eax
            put_unaligned(data, (uint32_t *)buf);
  80416010a6:	e9 99 08 00 00       	jmp    8041601944 <dwarf_read_abbrev_entry+0xa82>
    } break;
    case DW_FORM_data8: {
        uint64_t data = get_unaligned(entry, uint64_t);
  80416010ab:	ba 08 00 00 00       	mov    $0x8,%edx
  80416010b0:	48 8b 75 b8          	mov    -0x48(%rbp),%rsi
  80416010b4:	48 8d 7d d0          	lea    -0x30(%rbp),%rdi
  80416010b8:	48 b8 77 94 60 41 80 	movabs $0x8041609477,%rax
  80416010bf:	00 00 00 
  80416010c2:	ff d0                	call   *%rax
        entry += sizeof(uint64_t);
  80416010c4:	48 83 45 b8 08       	addq   $0x8,-0x48(%rbp)
        if (buf && bufsize >= sizeof(uint64_t))
  80416010c9:	4d 85 e4             	test   %r12,%r12
  80416010cc:	74 06                	je     80416010d4 <dwarf_read_abbrev_entry+0x212>
  80416010ce:	41 83 fd 07          	cmp    $0x7,%r13d
  80416010d2:	77 0a                	ja     80416010de <dwarf_read_abbrev_entry+0x21c>
            put_unaligned(data, (uint64_t *)buf);
        bytes = sizeof(uint64_t);
  80416010d4:	b8 08 00 00 00       	mov    $0x8,%eax
  80416010d9:	e9 66 08 00 00       	jmp    8041601944 <dwarf_read_abbrev_entry+0xa82>
            put_unaligned(data, (uint64_t *)buf);
  80416010de:	ba 08 00 00 00       	mov    $0x8,%edx
  80416010e3:	48 8d 75 d0          	lea    -0x30(%rbp),%rsi
  80416010e7:	4c 89 e7             	mov    %r12,%rdi
  80416010ea:	48 b8 77 94 60 41 80 	movabs $0x8041609477,%rax
  80416010f1:	00 00 00 
  80416010f4:	ff d0                	call   *%rax
        bytes = sizeof(uint64_t);
  80416010f6:	b8 08 00 00 00       	mov    $0x8,%eax
            put_unaligned(data, (uint64_t *)buf);
  80416010fb:	e9 44 08 00 00       	jmp    8041601944 <dwarf_read_abbrev_entry+0xa82>
    } break;
    case DW_FORM_string: {
        if (buf && bufsize >= sizeof(char *))
  8041601100:	48 85 d2             	test   %rdx,%rdx
  8041601103:	74 05                	je     804160110a <dwarf_read_abbrev_entry+0x248>
  8041601105:	83 f9 07             	cmp    $0x7,%ecx
  8041601108:	77 18                	ja     8041601122 <dwarf_read_abbrev_entry+0x260>
            memcpy(buf, &entry, sizeof(char *));
        bytes = strlen(entry) + 1;
  804160110a:	48 8b 7d b8          	mov    -0x48(%rbp),%rdi
  804160110e:	48 b8 ac 91 60 41 80 	movabs $0x80416091ac,%rax
  8041601115:	00 00 00 
  8041601118:	ff d0                	call   *%rax
  804160111a:	83 c0 01             	add    $0x1,%eax
    } break;
  804160111d:	e9 22 08 00 00       	jmp    8041601944 <dwarf_read_abbrev_entry+0xa82>
            memcpy(buf, &entry, sizeof(char *));
  8041601122:	ba 08 00 00 00       	mov    $0x8,%edx
  8041601127:	48 8d 75 b8          	lea    -0x48(%rbp),%rsi
  804160112b:	4c 89 e7             	mov    %r12,%rdi
  804160112e:	48 b8 77 94 60 41 80 	movabs $0x8041609477,%rax
  8041601135:	00 00 00 
  8041601138:	ff d0                	call   *%rax
  804160113a:	eb ce                	jmp    804160110a <dwarf_read_abbrev_entry+0x248>
    case DW_FORM_block: {
        uint64_t length = 0;
        uint32_t count = dwarf_read_uleb128(entry, &length);
  804160113c:	4c 8b 45 b8          	mov    -0x48(%rbp),%r8
  8041601140:	4c 89 c2             	mov    %r8,%rdx
/* Decode an unsigned LEB128 encoded datum. The algorithm is taken from Appendix C
 * of the DWARF 4 spec. Return the number of bytes read */
static inline uint64_t
dwarf_read_uleb128(const uint8_t *addr, uint64_t *ret) {
    uint64_t result = 0;
    size_t shift = 0, count = 0;
  8041601143:	b8 00 00 00 00       	mov    $0x0,%eax
  8041601148:	b9 00 00 00 00       	mov    $0x0,%ecx
    uint64_t result = 0;
  804160114d:	41 bd 00 00 00 00    	mov    $0x0,%r13d
    uint8_t byte;

    do {
        byte = *addr++;
  8041601153:	48 83 c2 01          	add    $0x1,%rdx
  8041601157:	0f b6 7a ff          	movzbl -0x1(%rdx),%edi
        result |= (byte & 0x7FULL) << shift;
  804160115b:	48 89 fe             	mov    %rdi,%rsi
  804160115e:	83 e6 7f             	and    $0x7f,%esi
  8041601161:	48 d3 e6             	shl    %cl,%rsi
  8041601164:	49 09 f5             	or     %rsi,%r13
        shift += 7;
  8041601167:	48 83 c1 07          	add    $0x7,%rcx
        count++;
  804160116b:	48 89 c6             	mov    %rax,%rsi
  804160116e:	48 83 c0 01          	add    $0x1,%rax
    } while (byte & 0x80 && shift < 64);
  8041601172:	40 84 ff             	test   %dil,%dil
  8041601175:	79 06                	jns    804160117d <dwarf_read_abbrev_entry+0x2bb>
  8041601177:	48 83 f9 3f          	cmp    $0x3f,%rcx
  804160117b:	76 d6                	jbe    8041601153 <dwarf_read_abbrev_entry+0x291>

    while (byte & 0x80) {
  804160117d:	40 84 ff             	test   %dil,%dil
  8041601180:	79 12                	jns    8041601194 <dwarf_read_abbrev_entry+0x2d2>
        byte = *addr++;
  8041601182:	48 f7 d6             	not    %rsi
  8041601185:	48 01 f2             	add    %rsi,%rdx
  8041601188:	0f b6 0c 02          	movzbl (%rdx,%rax,1),%ecx
        count++;
  804160118c:	48 83 c0 01          	add    $0x1,%rax
    while (byte & 0x80) {
  8041601190:	84 c9                	test   %cl,%cl
  8041601192:	78 f4                	js     8041601188 <dwarf_read_abbrev_entry+0x2c6>
  8041601194:	89 c3                	mov    %eax,%ebx
        entry += count;
  8041601196:	89 c0                	mov    %eax,%eax
  8041601198:	49 01 c0             	add    %rax,%r8
  804160119b:	4c 89 45 b8          	mov    %r8,-0x48(%rbp)
        struct Slice slice = {
  804160119f:	4c 89 45 d0          	mov    %r8,-0x30(%rbp)
  80416011a3:	44 89 6d d8          	mov    %r13d,-0x28(%rbp)
                .mem = entry,
                .len = length,
        };
        if (buf) memcpy(buf, &slice, sizeof(struct Slice));
  80416011a7:	4d 85 e4             	test   %r12,%r12
  80416011aa:	74 18                	je     80416011c4 <dwarf_read_abbrev_entry+0x302>
  80416011ac:	ba 10 00 00 00       	mov    $0x10,%edx
  80416011b1:	48 8d 75 d0          	lea    -0x30(%rbp),%rsi
  80416011b5:	4c 89 e7             	mov    %r12,%rdi
  80416011b8:	48 b8 77 94 60 41 80 	movabs $0x8041609477,%rax
  80416011bf:	00 00 00 
  80416011c2:	ff d0                	call   *%rax
        entry += length;
        bytes = count + length;
  80416011c4:	42 8d 04 2b          	lea    (%rbx,%r13,1),%eax
    } break;
  80416011c8:	e9 77 07 00 00       	jmp    8041601944 <dwarf_read_abbrev_entry+0xa82>
    case DW_FORM_block1: {
        uint32_t length = get_unaligned(entry, Dwarf_Small);
  80416011cd:	ba 01 00 00 00       	mov    $0x1,%edx
  80416011d2:	48 8b 75 b8          	mov    -0x48(%rbp),%rsi
  80416011d6:	48 8d 7d d0          	lea    -0x30(%rbp),%rdi
  80416011da:	48 b8 77 94 60 41 80 	movabs $0x8041609477,%rax
  80416011e1:	00 00 00 
  80416011e4:	ff d0                	call   *%rax
  80416011e6:	0f b6 5d d0          	movzbl -0x30(%rbp),%ebx
        entry += sizeof(Dwarf_Small);
  80416011ea:	48 8b 45 b8          	mov    -0x48(%rbp),%rax
  80416011ee:	48 83 c0 01          	add    $0x1,%rax
  80416011f2:	48 89 45 b8          	mov    %rax,-0x48(%rbp)
        struct Slice slice = {
  80416011f6:	48 89 45 d0          	mov    %rax,-0x30(%rbp)
  80416011fa:	89 5d d8             	mov    %ebx,-0x28(%rbp)
                .mem = entry,
                .len = length,
        };
        if (buf) memcpy(buf, &slice, sizeof(struct Slice));
  80416011fd:	4d 85 e4             	test   %r12,%r12
  8041601200:	74 18                	je     804160121a <dwarf_read_abbrev_entry+0x358>
  8041601202:	ba 10 00 00 00       	mov    $0x10,%edx
  8041601207:	48 8d 75 d0          	lea    -0x30(%rbp),%rsi
  804160120b:	4c 89 e7             	mov    %r12,%rdi
  804160120e:	48 b8 77 94 60 41 80 	movabs $0x8041609477,%rax
  8041601215:	00 00 00 
  8041601218:	ff d0                	call   *%rax
        entry += length;
        bytes = length + sizeof(Dwarf_Small);
  804160121a:	8d 43 01             	lea    0x1(%rbx),%eax
    } break;
  804160121d:	e9 22 07 00 00       	jmp    8041601944 <dwarf_read_abbrev_entry+0xa82>
    case DW_FORM_data1: {
        Dwarf_Small data = get_unaligned(entry, Dwarf_Small);
  8041601222:	ba 01 00 00 00       	mov    $0x1,%edx
  8041601227:	48 8b 75 b8          	mov    -0x48(%rbp),%rsi
  804160122b:	48 8d 7d d0          	lea    -0x30(%rbp),%rdi
  804160122f:	48 b8 77 94 60 41 80 	movabs $0x8041609477,%rax
  8041601236:	00 00 00 
  8041601239:	ff d0                	call   *%rax
  804160123b:	0f b6 45 d0          	movzbl -0x30(%rbp),%eax
        entry += sizeof(Dwarf_Small);
        if (buf && bufsize >= sizeof(Dwarf_Small)) {
  804160123f:	4d 85 e4             	test   %r12,%r12
  8041601242:	0f 84 09 07 00 00    	je     8041601951 <dwarf_read_abbrev_entry+0xa8f>
  8041601248:	45 85 ed             	test   %r13d,%r13d
  804160124b:	0f 84 00 07 00 00    	je     8041601951 <dwarf_read_abbrev_entry+0xa8f>
            put_unaligned(data, (Dwarf_Small *)buf);
  8041601251:	41 88 04 24          	mov    %al,(%r12)
        }
        bytes = sizeof(Dwarf_Small);
  8041601255:	b8 01 00 00 00       	mov    $0x1,%eax
            put_unaligned(data, (Dwarf_Small *)buf);
  804160125a:	e9 e5 06 00 00       	jmp    8041601944 <dwarf_read_abbrev_entry+0xa82>
    } break;
    case DW_FORM_flag: {
        bool data = get_unaligned(entry, Dwarf_Small);
  804160125f:	ba 01 00 00 00       	mov    $0x1,%edx
  8041601264:	48 8b 75 b8          	mov    -0x48(%rbp),%rsi
  8041601268:	48 8d 7d d0          	lea    -0x30(%rbp),%rdi
  804160126c:	48 b8 77 94 60 41 80 	movabs $0x8041609477,%rax
  8041601273:	00 00 00 
  8041601276:	ff d0                	call   *%rax
  8041601278:	0f b6 45 d0          	movzbl -0x30(%rbp),%eax
        entry += sizeof(Dwarf_Small);
        if (buf && bufsize >= sizeof(bool)) {
  804160127c:	4d 85 e4             	test   %r12,%r12
  804160127f:	0f 84 d3 06 00 00    	je     8041601958 <dwarf_read_abbrev_entry+0xa96>
  8041601285:	45 85 ed             	test   %r13d,%r13d
  8041601288:	0f 84 ca 06 00 00    	je     8041601958 <dwarf_read_abbrev_entry+0xa96>
        bool data = get_unaligned(entry, Dwarf_Small);
  804160128e:	84 c0                	test   %al,%al
            put_unaligned(data, (bool *)buf);
  8041601290:	41 0f 95 04 24       	setne  (%r12)
        }
        bytes = sizeof(Dwarf_Small);
  8041601295:	b8 01 00 00 00       	mov    $0x1,%eax
            put_unaligned(data, (bool *)buf);
  804160129a:	e9 a5 06 00 00       	jmp    8041601944 <dwarf_read_abbrev_entry+0xa82>
    } break;
    case DW_FORM_sdata: {
        int64_t data = 0;
        uint32_t count = dwarf_read_leb128(entry, &data);
  804160129f:	4c 8b 45 b8          	mov    -0x48(%rbp),%r8
  80416012a3:	4c 89 c0             	mov    %r8,%rax
/* Decode signed LEB128 data. The Algorithm is taken from Appendix C
 * of the DWARF 4 spec. Return the number of bytes read */
static inline uint64_t
dwarf_read_leb128(const char *addr, int64_t *ret) {
    size_t shift = 0, count = 0;
    uint64_t result = 0;
  80416012a6:	bf 00 00 00 00       	mov    $0x0,%edi
    size_t shift = 0, count = 0;
  80416012ab:	bb 00 00 00 00       	mov    $0x0,%ebx
  80416012b0:	b9 00 00 00 00       	mov    $0x0,%ecx
    uint8_t byte;

    do {
        byte = *addr++;
  80416012b5:	48 83 c0 01          	add    $0x1,%rax
  80416012b9:	0f b6 70 ff          	movzbl -0x1(%rax),%esi
        result |= (byte & 0x7FULL) << shift;
  80416012bd:	48 89 f2             	mov    %rsi,%rdx
  80416012c0:	83 e2 7f             	and    $0x7f,%edx
  80416012c3:	48 d3 e2             	shl    %cl,%rdx
  80416012c6:	48 09 d7             	or     %rdx,%rdi
        shift += 7;
  80416012c9:	48 83 c1 07          	add    $0x7,%rcx
        count++;
  80416012cd:	48 89 da             	mov    %rbx,%rdx
  80416012d0:	48 83 c3 01          	add    $0x1,%rbx
    } while (byte & 0x80 && shift < 64);
  80416012d4:	40 84 f6             	test   %sil,%sil
  80416012d7:	79 06                	jns    80416012df <dwarf_read_abbrev_entry+0x41d>
  80416012d9:	48 83 f9 3f          	cmp    $0x3f,%rcx
  80416012dd:	76 d6                	jbe    80416012b5 <dwarf_read_abbrev_entry+0x3f3>

    while (byte & 0x80) {
  80416012df:	40 84 f6             	test   %sil,%sil
  80416012e2:	79 2d                	jns    8041601311 <dwarf_read_abbrev_entry+0x44f>
        byte = *addr++;
  80416012e4:	48 f7 d2             	not    %rdx
  80416012e7:	48 01 d0             	add    %rdx,%rax
  80416012ea:	0f b6 14 18          	movzbl (%rax,%rbx,1),%edx
        count++;
  80416012ee:	48 83 c3 01          	add    $0x1,%rbx
    while (byte & 0x80) {
  80416012f2:	84 d2                	test   %dl,%dl
  80416012f4:	78 f4                	js     80416012ea <dwarf_read_abbrev_entry+0x428>
        entry += count;
  80416012f6:	89 d8                	mov    %ebx,%eax
  80416012f8:	49 01 c0             	add    %rax,%r8
  80416012fb:	4c 89 45 b8          	mov    %r8,-0x48(%rbp)
        if (buf && bufsize >= sizeof(int32_t))
  80416012ff:	4d 85 e4             	test   %r12,%r12
  8041601302:	74 06                	je     804160130a <dwarf_read_abbrev_entry+0x448>
  8041601304:	41 83 fd 03          	cmp    $0x3,%r13d
  8041601308:	77 1f                	ja     8041601329 <dwarf_read_abbrev_entry+0x467>
            put_unaligned(data, (int32_t *)buf);
        bytes = count;
  804160130a:	89 d8                	mov    %ebx,%eax
    } break;
  804160130c:	e9 33 06 00 00       	jmp    8041601944 <dwarf_read_abbrev_entry+0xa82>
    }

    /* The number of bits in a signed integer. */
    if (shift < 8 * sizeof(result) && byte & 0x40)
  8041601311:	48 83 f9 3f          	cmp    $0x3f,%rcx
  8041601315:	77 df                	ja     80416012f6 <dwarf_read_abbrev_entry+0x434>
  8041601317:	40 f6 c6 40          	test   $0x40,%sil
  804160131b:	74 d9                	je     80416012f6 <dwarf_read_abbrev_entry+0x434>
        result |= (-1U << shift);
  804160131d:	b8 ff ff ff ff       	mov    $0xffffffff,%eax
  8041601322:	d3 e0                	shl    %cl,%eax
  8041601324:	48 09 c7             	or     %rax,%rdi
  8041601327:	eb cd                	jmp    80416012f6 <dwarf_read_abbrev_entry+0x434>
            put_unaligned(data, (int32_t *)buf);
  8041601329:	89 7d d0             	mov    %edi,-0x30(%rbp)
  804160132c:	ba 04 00 00 00       	mov    $0x4,%edx
  8041601331:	48 8d 75 d0          	lea    -0x30(%rbp),%rsi
  8041601335:	4c 89 e7             	mov    %r12,%rdi
  8041601338:	48 b8 77 94 60 41 80 	movabs $0x8041609477,%rax
  804160133f:	00 00 00 
  8041601342:	ff d0                	call   *%rax
  8041601344:	eb c4                	jmp    804160130a <dwarf_read_abbrev_entry+0x448>
    case DW_FORM_strp: {
        uint64_t length = 0;
        uint32_t count = dwarf_entry_len(entry, &length);
  8041601346:	4c 8b 75 b8          	mov    -0x48(%rbp),%r14
    uint64_t initial_len = get_unaligned(addr, uint32_t);
  804160134a:	ba 04 00 00 00       	mov    $0x4,%edx
  804160134f:	4c 89 f6             	mov    %r14,%rsi
  8041601352:	48 8d 7d d0          	lea    -0x30(%rbp),%rdi
  8041601356:	48 b8 77 94 60 41 80 	movabs $0x8041609477,%rax
  804160135d:	00 00 00 
  8041601360:	ff d0                	call   *%rax
  8041601362:	8b 55 d0             	mov    -0x30(%rbp),%edx
    if (initial_len >= DW_EXT_LO && initial_len <= DW_EXT_HI) {
  8041601365:	48 b8 10 00 00 00 ff 	movabs $0xffffffff00000010,%rax
  804160136c:	ff ff ff 
  804160136f:	48 01 d0             	add    %rdx,%rax
    uint64_t count = sizeof(uint32_t);
  8041601372:	bb 04 00 00 00       	mov    $0x4,%ebx
    if (initial_len >= DW_EXT_LO && initial_len <= DW_EXT_HI) {
  8041601377:	48 83 f8 0f          	cmp    $0xf,%rax
  804160137b:	77 2f                	ja     80416013ac <dwarf_read_abbrev_entry+0x4ea>
        if (initial_len == DW_EXT_DWARF64) {
  804160137d:	b8 ff ff ff ff       	mov    $0xffffffff,%eax
  8041601382:	48 39 c2             	cmp    %rax,%rdx
  8041601385:	74 3b                	je     80416013c2 <dwarf_read_abbrev_entry+0x500>
            cprintf("Unknown DWARF extension\n");
  8041601387:	48 bf 40 a4 60 41 80 	movabs $0x804160a440,%rdi
  804160138e:	00 00 00 
  8041601391:	b8 00 00 00 00       	mov    $0x0,%eax
  8041601396:	48 ba b7 6f 60 41 80 	movabs $0x8041606fb7,%rdx
  804160139d:	00 00 00 
  80416013a0:	ff d2                	call   *%rdx
        uint64_t length = 0;
  80416013a2:	ba 00 00 00 00       	mov    $0x0,%edx
            count = 0;
  80416013a7:	bb 00 00 00 00       	mov    $0x0,%ebx
        entry += count;
  80416013ac:	48 01 5d b8          	add    %rbx,-0x48(%rbp)
        if (buf && bufsize >= sizeof(uint64_t))
  80416013b0:	4d 85 e4             	test   %r12,%r12
  80416013b3:	74 06                	je     80416013bb <dwarf_read_abbrev_entry+0x4f9>
  80416013b5:	41 83 fd 07          	cmp    $0x7,%r13d
  80416013b9:	77 2b                	ja     80416013e6 <dwarf_read_abbrev_entry+0x524>
            put_unaligned(length, (uint64_t *)buf);
        bytes = count;
  80416013bb:	89 d8                	mov    %ebx,%eax
    } break;
  80416013bd:	e9 82 05 00 00       	jmp    8041601944 <dwarf_read_abbrev_entry+0xa82>
            *len = get_unaligned((uint64_t *)addr + sizeof(uint32_t), uint64_t);
  80416013c2:	49 8d 76 20          	lea    0x20(%r14),%rsi
  80416013c6:	ba 08 00 00 00       	mov    $0x8,%edx
  80416013cb:	48 8d 7d d0          	lea    -0x30(%rbp),%rdi
  80416013cf:	48 b8 77 94 60 41 80 	movabs $0x8041609477,%rax
  80416013d6:	00 00 00 
  80416013d9:	ff d0                	call   *%rax
  80416013db:	48 8b 55 d0          	mov    -0x30(%rbp),%rdx
            count += sizeof(uint64_t);
  80416013df:	bb 0c 00 00 00       	mov    $0xc,%ebx
  80416013e4:	eb c6                	jmp    80416013ac <dwarf_read_abbrev_entry+0x4ea>
            put_unaligned(length, (uint64_t *)buf);
  80416013e6:	48 89 55 d0          	mov    %rdx,-0x30(%rbp)
  80416013ea:	ba 08 00 00 00       	mov    $0x8,%edx
  80416013ef:	48 8d 75 d0          	lea    -0x30(%rbp),%rsi
  80416013f3:	4c 89 e7             	mov    %r12,%rdi
  80416013f6:	48 b8 77 94 60 41 80 	movabs $0x8041609477,%rax
  80416013fd:	00 00 00 
  8041601400:	ff d0                	call   *%rax
  8041601402:	eb b7                	jmp    80416013bb <dwarf_read_abbrev_entry+0x4f9>
    case DW_FORM_udata: {
        uint64_t data = 0;
        uint32_t count = dwarf_read_uleb128(entry, &data);
  8041601404:	4c 8b 45 b8          	mov    -0x48(%rbp),%r8
  8041601408:	4c 89 c0             	mov    %r8,%rax
    size_t shift = 0, count = 0;
  804160140b:	bb 00 00 00 00       	mov    $0x0,%ebx
  8041601410:	b9 00 00 00 00       	mov    $0x0,%ecx
    uint64_t result = 0;
  8041601415:	bf 00 00 00 00       	mov    $0x0,%edi
        byte = *addr++;
  804160141a:	48 83 c0 01          	add    $0x1,%rax
  804160141e:	0f b6 70 ff          	movzbl -0x1(%rax),%esi
        result |= (byte & 0x7FULL) << shift;
  8041601422:	48 89 f2             	mov    %rsi,%rdx
  8041601425:	83 e2 7f             	and    $0x7f,%edx
  8041601428:	48 d3 e2             	shl    %cl,%rdx
  804160142b:	48 09 d7             	or     %rdx,%rdi
        shift += 7;
  804160142e:	48 83 c1 07          	add    $0x7,%rcx
        count++;
  8041601432:	48 89 da             	mov    %rbx,%rdx
  8041601435:	48 83 c3 01          	add    $0x1,%rbx
    } while (byte & 0x80 && shift < 64);
  8041601439:	40 84 f6             	test   %sil,%sil
  804160143c:	79 06                	jns    8041601444 <dwarf_read_abbrev_entry+0x582>
  804160143e:	48 83 f9 3f          	cmp    $0x3f,%rcx
  8041601442:	76 d6                	jbe    804160141a <dwarf_read_abbrev_entry+0x558>
    while (byte & 0x80) {
  8041601444:	40 84 f6             	test   %sil,%sil
  8041601447:	79 12                	jns    804160145b <dwarf_read_abbrev_entry+0x599>
        byte = *addr++;
  8041601449:	48 f7 d2             	not    %rdx
  804160144c:	48 01 d0             	add    %rdx,%rax
  804160144f:	0f b6 14 18          	movzbl (%rax,%rbx,1),%edx
        count++;
  8041601453:	48 83 c3 01          	add    $0x1,%rbx
    while (byte & 0x80) {
  8041601457:	84 d2                	test   %dl,%dl
  8041601459:	78 f4                	js     804160144f <dwarf_read_abbrev_entry+0x58d>
        entry += count;
  804160145b:	89 d8                	mov    %ebx,%eax
  804160145d:	49 01 c0             	add    %rax,%r8
  8041601460:	4c 89 45 b8          	mov    %r8,-0x48(%rbp)
        if (buf && bufsize >= sizeof(uint32_t))
  8041601464:	4d 85 e4             	test   %r12,%r12
  8041601467:	74 06                	je     804160146f <dwarf_read_abbrev_entry+0x5ad>
  8041601469:	41 83 fd 03          	cmp    $0x3,%r13d
  804160146d:	77 07                	ja     8041601476 <dwarf_read_abbrev_entry+0x5b4>
            put_unaligned(data, (uint32_t *)buf);
        bytes = count;
  804160146f:	89 d8                	mov    %ebx,%eax
    } break;
  8041601471:	e9 ce 04 00 00       	jmp    8041601944 <dwarf_read_abbrev_entry+0xa82>
            put_unaligned(data, (uint32_t *)buf);
  8041601476:	89 7d d0             	mov    %edi,-0x30(%rbp)
  8041601479:	ba 04 00 00 00       	mov    $0x4,%edx
  804160147e:	48 8d 75 d0          	lea    -0x30(%rbp),%rsi
  8041601482:	4c 89 e7             	mov    %r12,%rdi
  8041601485:	48 b8 77 94 60 41 80 	movabs $0x8041609477,%rax
  804160148c:	00 00 00 
  804160148f:	ff d0                	call   *%rax
  8041601491:	eb dc                	jmp    804160146f <dwarf_read_abbrev_entry+0x5ad>
    case DW_FORM_ref_addr: {
        uint64_t length = 0;
        uint32_t count = dwarf_entry_len(entry, &length);
  8041601493:	4c 8b 75 b8          	mov    -0x48(%rbp),%r14
    uint64_t initial_len = get_unaligned(addr, uint32_t);
  8041601497:	ba 04 00 00 00       	mov    $0x4,%edx
  804160149c:	4c 89 f6             	mov    %r14,%rsi
  804160149f:	48 8d 7d d0          	lea    -0x30(%rbp),%rdi
  80416014a3:	48 b8 77 94 60 41 80 	movabs $0x8041609477,%rax
  80416014aa:	00 00 00 
  80416014ad:	ff d0                	call   *%rax
  80416014af:	8b 55 d0             	mov    -0x30(%rbp),%edx
    if (initial_len >= DW_EXT_LO && initial_len <= DW_EXT_HI) {
  80416014b2:	48 b8 10 00 00 00 ff 	movabs $0xffffffff00000010,%rax
  80416014b9:	ff ff ff 
  80416014bc:	48 01 d0             	add    %rdx,%rax
    uint64_t count = sizeof(uint32_t);
  80416014bf:	bb 04 00 00 00       	mov    $0x4,%ebx
    if (initial_len >= DW_EXT_LO && initial_len <= DW_EXT_HI) {
  80416014c4:	48 83 f8 0f          	cmp    $0xf,%rax
  80416014c8:	77 2f                	ja     80416014f9 <dwarf_read_abbrev_entry+0x637>
        if (initial_len == DW_EXT_DWARF64) {
  80416014ca:	b8 ff ff ff ff       	mov    $0xffffffff,%eax
  80416014cf:	48 39 c2             	cmp    %rax,%rdx
  80416014d2:	74 3b                	je     804160150f <dwarf_read_abbrev_entry+0x64d>
            cprintf("Unknown DWARF extension\n");
  80416014d4:	48 bf 40 a4 60 41 80 	movabs $0x804160a440,%rdi
  80416014db:	00 00 00 
  80416014de:	b8 00 00 00 00       	mov    $0x0,%eax
  80416014e3:	48 ba b7 6f 60 41 80 	movabs $0x8041606fb7,%rdx
  80416014ea:	00 00 00 
  80416014ed:	ff d2                	call   *%rdx
        uint64_t length = 0;
  80416014ef:	ba 00 00 00 00       	mov    $0x0,%edx
            count = 0;
  80416014f4:	bb 00 00 00 00       	mov    $0x0,%ebx
        entry += count;
  80416014f9:	48 01 5d b8          	add    %rbx,-0x48(%rbp)
        if (buf && bufsize >= sizeof(uint64_t))
  80416014fd:	4d 85 e4             	test   %r12,%r12
  8041601500:	74 06                	je     8041601508 <dwarf_read_abbrev_entry+0x646>
  8041601502:	41 83 fd 07          	cmp    $0x7,%r13d
  8041601506:	77 2b                	ja     8041601533 <dwarf_read_abbrev_entry+0x671>
            put_unaligned(length, (uint64_t *)buf);
        bytes = count;
  8041601508:	89 d8                	mov    %ebx,%eax
    } break;
  804160150a:	e9 35 04 00 00       	jmp    8041601944 <dwarf_read_abbrev_entry+0xa82>
            *len = get_unaligned((uint64_t *)addr + sizeof(uint32_t), uint64_t);
  804160150f:	49 8d 76 20          	lea    0x20(%r14),%rsi
  8041601513:	ba 08 00 00 00       	mov    $0x8,%edx
  8041601518:	48 8d 7d d0          	lea    -0x30(%rbp),%rdi
  804160151c:	48 b8 77 94 60 41 80 	movabs $0x8041609477,%rax
  8041601523:	00 00 00 
  8041601526:	ff d0                	call   *%rax
  8041601528:	48 8b 55 d0          	mov    -0x30(%rbp),%rdx
            count += sizeof(uint64_t);
  804160152c:	bb 0c 00 00 00       	mov    $0xc,%ebx
  8041601531:	eb c6                	jmp    80416014f9 <dwarf_read_abbrev_entry+0x637>
            put_unaligned(length, (uint64_t *)buf);
  8041601533:	48 89 55 d0          	mov    %rdx,-0x30(%rbp)
  8041601537:	ba 08 00 00 00       	mov    $0x8,%edx
  804160153c:	48 8d 75 d0          	lea    -0x30(%rbp),%rsi
  8041601540:	4c 89 e7             	mov    %r12,%rdi
  8041601543:	48 b8 77 94 60 41 80 	movabs $0x8041609477,%rax
  804160154a:	00 00 00 
  804160154d:	ff d0                	call   *%rax
  804160154f:	eb b7                	jmp    8041601508 <dwarf_read_abbrev_entry+0x646>
    case DW_FORM_ref1: {
        Dwarf_Small data = get_unaligned(entry, Dwarf_Small);
  8041601551:	ba 01 00 00 00       	mov    $0x1,%edx
  8041601556:	48 8b 75 b8          	mov    -0x48(%rbp),%rsi
  804160155a:	48 8d 7d d0          	lea    -0x30(%rbp),%rdi
  804160155e:	48 b8 77 94 60 41 80 	movabs $0x8041609477,%rax
  8041601565:	00 00 00 
  8041601568:	ff d0                	call   *%rax
  804160156a:	0f b6 45 d0          	movzbl -0x30(%rbp),%eax
        entry += sizeof(Dwarf_Small);
        if (buf && bufsize >= sizeof(Dwarf_Small))
  804160156e:	4d 85 e4             	test   %r12,%r12
  8041601571:	0f 84 e8 03 00 00    	je     804160195f <dwarf_read_abbrev_entry+0xa9d>
  8041601577:	45 85 ed             	test   %r13d,%r13d
  804160157a:	0f 84 df 03 00 00    	je     804160195f <dwarf_read_abbrev_entry+0xa9d>
            put_unaligned(data, (Dwarf_Small *)buf);
  8041601580:	41 88 04 24          	mov    %al,(%r12)
        bytes = sizeof(Dwarf_Small);
  8041601584:	b8 01 00 00 00       	mov    $0x1,%eax
            put_unaligned(data, (Dwarf_Small *)buf);
  8041601589:	e9 b6 03 00 00       	jmp    8041601944 <dwarf_read_abbrev_entry+0xa82>
    } break;
    case DW_FORM_ref2: {
        Dwarf_Half data = get_unaligned(entry, Dwarf_Half);
  804160158e:	ba 02 00 00 00       	mov    $0x2,%edx
  8041601593:	48 8b 75 b8          	mov    -0x48(%rbp),%rsi
  8041601597:	48 8d 7d d0          	lea    -0x30(%rbp),%rdi
  804160159b:	48 b8 77 94 60 41 80 	movabs $0x8041609477,%rax
  80416015a2:	00 00 00 
  80416015a5:	ff d0                	call   *%rax
        entry += sizeof(Dwarf_Half);
  80416015a7:	48 83 45 b8 02       	addq   $0x2,-0x48(%rbp)
        if (buf && bufsize >= sizeof(Dwarf_Half))
  80416015ac:	4d 85 e4             	test   %r12,%r12
  80416015af:	74 06                	je     80416015b7 <dwarf_read_abbrev_entry+0x6f5>
  80416015b1:	41 83 fd 01          	cmp    $0x1,%r13d
  80416015b5:	77 0a                	ja     80416015c1 <dwarf_read_abbrev_entry+0x6ff>
            put_unaligned(data, (Dwarf_Half *)buf);
        bytes = sizeof(Dwarf_Half);
  80416015b7:	b8 02 00 00 00       	mov    $0x2,%eax
  80416015bc:	e9 83 03 00 00       	jmp    8041601944 <dwarf_read_abbrev_entry+0xa82>
            put_unaligned(data, (Dwarf_Half *)buf);
  80416015c1:	ba 02 00 00 00       	mov    $0x2,%edx
  80416015c6:	48 8d 75 d0          	lea    -0x30(%rbp),%rsi
  80416015ca:	4c 89 e7             	mov    %r12,%rdi
  80416015cd:	48 b8 77 94 60 41 80 	movabs $0x8041609477,%rax
  80416015d4:	00 00 00 
  80416015d7:	ff d0                	call   *%rax
        bytes = sizeof(Dwarf_Half);
  80416015d9:	b8 02 00 00 00       	mov    $0x2,%eax
            put_unaligned(data, (Dwarf_Half *)buf);
  80416015de:	e9 61 03 00 00       	jmp    8041601944 <dwarf_read_abbrev_entry+0xa82>
    } break;
    case DW_FORM_ref4: {
        uint32_t data = get_unaligned(entry, uint32_t);
  80416015e3:	ba 04 00 00 00       	mov    $0x4,%edx
  80416015e8:	48 8b 75 b8          	mov    -0x48(%rbp),%rsi
  80416015ec:	48 8d 7d d0          	lea    -0x30(%rbp),%rdi
  80416015f0:	48 b8 77 94 60 41 80 	movabs $0x8041609477,%rax
  80416015f7:	00 00 00 
  80416015fa:	ff d0                	call   *%rax
        entry += sizeof(uint32_t);
  80416015fc:	48 83 45 b8 04       	addq   $0x4,-0x48(%rbp)
        if (buf && bufsize >= sizeof(uint32_t))
  8041601601:	4d 85 e4             	test   %r12,%r12
  8041601604:	74 06                	je     804160160c <dwarf_read_abbrev_entry+0x74a>
  8041601606:	41 83 fd 03          	cmp    $0x3,%r13d
  804160160a:	77 0a                	ja     8041601616 <dwarf_read_abbrev_entry+0x754>
            put_unaligned(data, (uint32_t *)buf);
        bytes = sizeof(uint32_t);
  804160160c:	b8 04 00 00 00       	mov    $0x4,%eax
  8041601611:	e9 2e 03 00 00       	jmp    8041601944 <dwarf_read_abbrev_entry+0xa82>
            put_unaligned(data, (uint32_t *)buf);
  8041601616:	ba 04 00 00 00       	mov    $0x4,%edx
  804160161b:	48 8d 75 d0          	lea    -0x30(%rbp),%rsi
  804160161f:	4c 89 e7             	mov    %r12,%rdi
  8041601622:	48 b8 77 94 60 41 80 	movabs $0x8041609477,%rax
  8041601629:	00 00 00 
  804160162c:	ff d0                	call   *%rax
        bytes = sizeof(uint32_t);
  804160162e:	b8 04 00 00 00       	mov    $0x4,%eax
            put_unaligned(data, (uint32_t *)buf);
  8041601633:	e9 0c 03 00 00       	jmp    8041601944 <dwarf_read_abbrev_entry+0xa82>
    } break;
    case DW_FORM_ref8: {
        uint64_t data = get_unaligned(entry, uint64_t);
  8041601638:	ba 08 00 00 00       	mov    $0x8,%edx
  804160163d:	48 8b 75 b8          	mov    -0x48(%rbp),%rsi
  8041601641:	48 8d 7d d0          	lea    -0x30(%rbp),%rdi
  8041601645:	48 b8 77 94 60 41 80 	movabs $0x8041609477,%rax
  804160164c:	00 00 00 
  804160164f:	ff d0                	call   *%rax
        entry += sizeof(uint64_t);
  8041601651:	48 83 45 b8 08       	addq   $0x8,-0x48(%rbp)
        if (buf && bufsize >= sizeof(uint64_t))
  8041601656:	4d 85 e4             	test   %r12,%r12
  8041601659:	74 06                	je     8041601661 <dwarf_read_abbrev_entry+0x79f>
  804160165b:	41 83 fd 07          	cmp    $0x7,%r13d
  804160165f:	77 0a                	ja     804160166b <dwarf_read_abbrev_entry+0x7a9>
            put_unaligned(data, (uint64_t *)buf);
        bytes = sizeof(uint64_t);
  8041601661:	b8 08 00 00 00       	mov    $0x8,%eax
  8041601666:	e9 d9 02 00 00       	jmp    8041601944 <dwarf_read_abbrev_entry+0xa82>
            put_unaligned(data, (uint64_t *)buf);
  804160166b:	ba 08 00 00 00       	mov    $0x8,%edx
  8041601670:	48 8d 75 d0          	lea    -0x30(%rbp),%rsi
  8041601674:	4c 89 e7             	mov    %r12,%rdi
  8041601677:	48 b8 77 94 60 41 80 	movabs $0x8041609477,%rax
  804160167e:	00 00 00 
  8041601681:	ff d0                	call   *%rax
        bytes = sizeof(uint64_t);
  8041601683:	b8 08 00 00 00       	mov    $0x8,%eax
            put_unaligned(data, (uint64_t *)buf);
  8041601688:	e9 b7 02 00 00       	jmp    8041601944 <dwarf_read_abbrev_entry+0xa82>
    } break;
    case DW_FORM_ref_udata: {
        uint64_t data = 0;
        uint32_t count = dwarf_read_uleb128(entry, &data);
  804160168d:	4c 8b 45 b8          	mov    -0x48(%rbp),%r8
  8041601691:	4c 89 c0             	mov    %r8,%rax
    size_t shift = 0, count = 0;
  8041601694:	bb 00 00 00 00       	mov    $0x0,%ebx
  8041601699:	b9 00 00 00 00       	mov    $0x0,%ecx
    uint64_t result = 0;
  804160169e:	bf 00 00 00 00       	mov    $0x0,%edi
        byte = *addr++;
  80416016a3:	48 83 c0 01          	add    $0x1,%rax
  80416016a7:	0f b6 70 ff          	movzbl -0x1(%rax),%esi
        result |= (byte & 0x7FULL) << shift;
  80416016ab:	48 89 f2             	mov    %rsi,%rdx
  80416016ae:	83 e2 7f             	and    $0x7f,%edx
  80416016b1:	48 d3 e2             	shl    %cl,%rdx
  80416016b4:	48 09 d7             	or     %rdx,%rdi
        shift += 7;
  80416016b7:	48 83 c1 07          	add    $0x7,%rcx
        count++;
  80416016bb:	48 89 da             	mov    %rbx,%rdx
  80416016be:	48 83 c3 01          	add    $0x1,%rbx
    } while (byte & 0x80 && shift < 64);
  80416016c2:	40 84 f6             	test   %sil,%sil
  80416016c5:	79 06                	jns    80416016cd <dwarf_read_abbrev_entry+0x80b>
  80416016c7:	48 83 f9 3f          	cmp    $0x3f,%rcx
  80416016cb:	76 d6                	jbe    80416016a3 <dwarf_read_abbrev_entry+0x7e1>
    while (byte & 0x80) {
  80416016cd:	40 84 f6             	test   %sil,%sil
  80416016d0:	79 12                	jns    80416016e4 <dwarf_read_abbrev_entry+0x822>
        byte = *addr++;
  80416016d2:	48 f7 d2             	not    %rdx
  80416016d5:	48 01 d0             	add    %rdx,%rax
  80416016d8:	0f b6 14 18          	movzbl (%rax,%rbx,1),%edx
        count++;
  80416016dc:	48 83 c3 01          	add    $0x1,%rbx
    while (byte & 0x80) {
  80416016e0:	84 d2                	test   %dl,%dl
  80416016e2:	78 f4                	js     80416016d8 <dwarf_read_abbrev_entry+0x816>
        entry += count;
  80416016e4:	89 d8                	mov    %ebx,%eax
  80416016e6:	49 01 c0             	add    %rax,%r8
  80416016e9:	4c 89 45 b8          	mov    %r8,-0x48(%rbp)
        if (buf && bufsize >= sizeof(unsigned int))
  80416016ed:	4d 85 e4             	test   %r12,%r12
  80416016f0:	74 06                	je     80416016f8 <dwarf_read_abbrev_entry+0x836>
  80416016f2:	41 83 fd 03          	cmp    $0x3,%r13d
  80416016f6:	77 07                	ja     80416016ff <dwarf_read_abbrev_entry+0x83d>
            put_unaligned(data, (unsigned int *)buf);
        bytes = count;
  80416016f8:	89 d8                	mov    %ebx,%eax
    } break;
  80416016fa:	e9 45 02 00 00       	jmp    8041601944 <dwarf_read_abbrev_entry+0xa82>
            put_unaligned(data, (unsigned int *)buf);
  80416016ff:	89 7d d0             	mov    %edi,-0x30(%rbp)
  8041601702:	ba 04 00 00 00       	mov    $0x4,%edx
  8041601707:	48 8d 75 d0          	lea    -0x30(%rbp),%rsi
  804160170b:	4c 89 e7             	mov    %r12,%rdi
  804160170e:	48 b8 77 94 60 41 80 	movabs $0x8041609477,%rax
  8041601715:	00 00 00 
  8041601718:	ff d0                	call   *%rax
  804160171a:	eb dc                	jmp    80416016f8 <dwarf_read_abbrev_entry+0x836>
    case DW_FORM_indirect: {
        uint64_t form = 0;
        uint32_t count = dwarf_read_uleb128(entry, &form);
  804160171c:	48 8b 7d b8          	mov    -0x48(%rbp),%rdi
  8041601720:	48 89 f8             	mov    %rdi,%rax
    size_t shift = 0, count = 0;
  8041601723:	41 be 00 00 00 00    	mov    $0x0,%r14d
  8041601729:	b9 00 00 00 00       	mov    $0x0,%ecx
    uint64_t result = 0;
  804160172e:	be 00 00 00 00       	mov    $0x0,%esi
        byte = *addr++;
  8041601733:	48 83 c0 01          	add    $0x1,%rax
  8041601737:	44 0f b6 40 ff       	movzbl -0x1(%rax),%r8d
        result |= (byte & 0x7FULL) << shift;
  804160173c:	4c 89 c2             	mov    %r8,%rdx
  804160173f:	83 e2 7f             	and    $0x7f,%edx
  8041601742:	48 d3 e2             	shl    %cl,%rdx
  8041601745:	48 09 d6             	or     %rdx,%rsi
        shift += 7;
  8041601748:	48 83 c1 07          	add    $0x7,%rcx
        count++;
  804160174c:	4c 89 f2             	mov    %r14,%rdx
  804160174f:	49 83 c6 01          	add    $0x1,%r14
    } while (byte & 0x80 && shift < 64);
  8041601753:	45 84 c0             	test   %r8b,%r8b
  8041601756:	79 06                	jns    804160175e <dwarf_read_abbrev_entry+0x89c>
  8041601758:	48 83 f9 3f          	cmp    $0x3f,%rcx
  804160175c:	76 d5                	jbe    8041601733 <dwarf_read_abbrev_entry+0x871>
    while (byte & 0x80) {
  804160175e:	45 84 c0             	test   %r8b,%r8b
  8041601761:	79 13                	jns    8041601776 <dwarf_read_abbrev_entry+0x8b4>
        byte = *addr++;
  8041601763:	48 f7 d2             	not    %rdx
  8041601766:	48 01 d0             	add    %rdx,%rax
  8041601769:	42 0f b6 14 30       	movzbl (%rax,%r14,1),%edx
        count++;
  804160176e:	49 83 c6 01          	add    $0x1,%r14
    while (byte & 0x80) {
  8041601772:	84 d2                	test   %dl,%dl
  8041601774:	78 f3                	js     8041601769 <dwarf_read_abbrev_entry+0x8a7>
        entry += count;
  8041601776:	44 89 f0             	mov    %r14d,%eax
  8041601779:	48 01 c7             	add    %rax,%rdi
  804160177c:	48 89 7d b8          	mov    %rdi,-0x48(%rbp)
        uint32_t read = dwarf_read_abbrev_entry(entry, form, buf, bufsize, address_size);
  8041601780:	49 89 d8             	mov    %rbx,%r8
  8041601783:	44 89 e9             	mov    %r13d,%ecx
  8041601786:	4c 89 e2             	mov    %r12,%rdx
  8041601789:	48 b8 c2 0e 60 41 80 	movabs $0x8041600ec2,%rax
  8041601790:	00 00 00 
  8041601793:	ff d0                	call   *%rax
        bytes = count + read;
  8041601795:	44 01 f0             	add    %r14d,%eax
    } break;
  8041601798:	e9 a7 01 00 00       	jmp    8041601944 <dwarf_read_abbrev_entry+0xa82>
    case DW_FORM_sec_offset: {
        uint64_t length = 0;
        uint32_t count = dwarf_entry_len(entry, &length);
  804160179d:	4c 8b 75 b8          	mov    -0x48(%rbp),%r14
    uint64_t initial_len = get_unaligned(addr, uint32_t);
  80416017a1:	ba 04 00 00 00       	mov    $0x4,%edx
  80416017a6:	4c 89 f6             	mov    %r14,%rsi
  80416017a9:	48 8d 7d d0          	lea    -0x30(%rbp),%rdi
  80416017ad:	48 b8 77 94 60 41 80 	movabs $0x8041609477,%rax
  80416017b4:	00 00 00 
  80416017b7:	ff d0                	call   *%rax
  80416017b9:	8b 55 d0             	mov    -0x30(%rbp),%edx
    if (initial_len >= DW_EXT_LO && initial_len <= DW_EXT_HI) {
  80416017bc:	48 b8 10 00 00 00 ff 	movabs $0xffffffff00000010,%rax
  80416017c3:	ff ff ff 
  80416017c6:	48 01 d0             	add    %rdx,%rax
    uint64_t count = sizeof(uint32_t);
  80416017c9:	bb 04 00 00 00       	mov    $0x4,%ebx
    if (initial_len >= DW_EXT_LO && initial_len <= DW_EXT_HI) {
  80416017ce:	48 83 f8 0f          	cmp    $0xf,%rax
  80416017d2:	77 2f                	ja     8041601803 <dwarf_read_abbrev_entry+0x941>
        if (initial_len == DW_EXT_DWARF64) {
  80416017d4:	b8 ff ff ff ff       	mov    $0xffffffff,%eax
  80416017d9:	48 39 c2             	cmp    %rax,%rdx
  80416017dc:	74 3b                	je     8041601819 <dwarf_read_abbrev_entry+0x957>
            cprintf("Unknown DWARF extension\n");
  80416017de:	48 bf 40 a4 60 41 80 	movabs $0x804160a440,%rdi
  80416017e5:	00 00 00 
  80416017e8:	b8 00 00 00 00       	mov    $0x0,%eax
  80416017ed:	48 ba b7 6f 60 41 80 	movabs $0x8041606fb7,%rdx
  80416017f4:	00 00 00 
  80416017f7:	ff d2                	call   *%rdx
        uint64_t length = 0;
  80416017f9:	ba 00 00 00 00       	mov    $0x0,%edx
            count = 0;
  80416017fe:	bb 00 00 00 00       	mov    $0x0,%ebx
        entry += count;
  8041601803:	48 01 5d b8          	add    %rbx,-0x48(%rbp)
        if (buf && bufsize >= sizeof(unsigned long))
  8041601807:	4d 85 e4             	test   %r12,%r12
  804160180a:	74 06                	je     8041601812 <dwarf_read_abbrev_entry+0x950>
  804160180c:	41 83 fd 07          	cmp    $0x7,%r13d
  8041601810:	77 2b                	ja     804160183d <dwarf_read_abbrev_entry+0x97b>
            put_unaligned(length, (unsigned long *)buf);
        bytes = count;
  8041601812:	89 d8                	mov    %ebx,%eax
    } break;
  8041601814:	e9 2b 01 00 00       	jmp    8041601944 <dwarf_read_abbrev_entry+0xa82>
            *len = get_unaligned((uint64_t *)addr + sizeof(uint32_t), uint64_t);
  8041601819:	49 8d 76 20          	lea    0x20(%r14),%rsi
  804160181d:	ba 08 00 00 00       	mov    $0x8,%edx
  8041601822:	48 8d 7d d0          	lea    -0x30(%rbp),%rdi
  8041601826:	48 b8 77 94 60 41 80 	movabs $0x8041609477,%rax
  804160182d:	00 00 00 
  8041601830:	ff d0                	call   *%rax
  8041601832:	48 8b 55 d0          	mov    -0x30(%rbp),%rdx
            count += sizeof(uint64_t);
  8041601836:	bb 0c 00 00 00       	mov    $0xc,%ebx
  804160183b:	eb c6                	jmp    8041601803 <dwarf_read_abbrev_entry+0x941>
            put_unaligned(length, (unsigned long *)buf);
  804160183d:	48 89 55 d0          	mov    %rdx,-0x30(%rbp)
  8041601841:	ba 08 00 00 00       	mov    $0x8,%edx
  8041601846:	48 8d 75 d0          	lea    -0x30(%rbp),%rsi
  804160184a:	4c 89 e7             	mov    %r12,%rdi
  804160184d:	48 b8 77 94 60 41 80 	movabs $0x8041609477,%rax
  8041601854:	00 00 00 
  8041601857:	ff d0                	call   *%rax
  8041601859:	eb b7                	jmp    8041601812 <dwarf_read_abbrev_entry+0x950>
    case DW_FORM_exprloc: {
        uint64_t length = 0;
        uint64_t count = dwarf_read_uleb128(entry, &length);
  804160185b:	48 8b 75 b8          	mov    -0x48(%rbp),%rsi
  804160185f:	48 89 f0             	mov    %rsi,%rax
    size_t shift = 0, count = 0;
  8041601862:	bb 00 00 00 00       	mov    $0x0,%ebx
  8041601867:	b9 00 00 00 00       	mov    $0x0,%ecx
    uint64_t result = 0;
  804160186c:	41 be 00 00 00 00    	mov    $0x0,%r14d
        byte = *addr++;
  8041601872:	48 83 c0 01          	add    $0x1,%rax
  8041601876:	0f b6 78 ff          	movzbl -0x1(%rax),%edi
        result |= (byte & 0x7FULL) << shift;
  804160187a:	48 89 fa             	mov    %rdi,%rdx
  804160187d:	83 e2 7f             	and    $0x7f,%edx
  8041601880:	48 d3 e2             	shl    %cl,%rdx
  8041601883:	49 09 d6             	or     %rdx,%r14
        shift += 7;
  8041601886:	48 83 c1 07          	add    $0x7,%rcx
        count++;
  804160188a:	48 89 da             	mov    %rbx,%rdx
  804160188d:	48 83 c3 01          	add    $0x1,%rbx
    } while (byte & 0x80 && shift < 64);
  8041601891:	40 84 ff             	test   %dil,%dil
  8041601894:	79 06                	jns    804160189c <dwarf_read_abbrev_entry+0x9da>
  8041601896:	48 83 f9 3f          	cmp    $0x3f,%rcx
  804160189a:	76 d6                	jbe    8041601872 <dwarf_read_abbrev_entry+0x9b0>
    while (byte & 0x80) {
  804160189c:	40 84 ff             	test   %dil,%dil
  804160189f:	79 12                	jns    80416018b3 <dwarf_read_abbrev_entry+0x9f1>
        byte = *addr++;
  80416018a1:	48 f7 d2             	not    %rdx
  80416018a4:	48 01 d0             	add    %rdx,%rax
  80416018a7:	0f b6 14 18          	movzbl (%rax,%rbx,1),%edx
        count++;
  80416018ab:	48 83 c3 01          	add    $0x1,%rbx
    while (byte & 0x80) {
  80416018af:	84 d2                	test   %dl,%dl
  80416018b1:	78 f4                	js     80416018a7 <dwarf_read_abbrev_entry+0x9e5>
        entry += count;
  80416018b3:	48 01 de             	add    %rbx,%rsi
  80416018b6:	48 89 75 b8          	mov    %rsi,-0x48(%rbp)
        if (buf) memcpy(buf, entry, MIN(length, bufsize));
  80416018ba:	4d 85 e4             	test   %r12,%r12
  80416018bd:	74 1c                	je     80416018db <dwarf_read_abbrev_entry+0xa19>
  80416018bf:	4d 63 ed             	movslq %r13d,%r13
  80416018c2:	4d 39 f5             	cmp    %r14,%r13
  80416018c5:	4c 89 ea             	mov    %r13,%rdx
  80416018c8:	49 0f 47 d6          	cmova  %r14,%rdx
  80416018cc:	4c 89 e7             	mov    %r12,%rdi
  80416018cf:	48 b8 77 94 60 41 80 	movabs $0x8041609477,%rax
  80416018d6:	00 00 00 
  80416018d9:	ff d0                	call   *%rax
        entry += length;
        bytes = count + length;
  80416018db:	42 8d 04 33          	lea    (%rbx,%r14,1),%eax
    } break;
  80416018df:	eb 63                	jmp    8041601944 <dwarf_read_abbrev_entry+0xa82>
    case DW_FORM_flag_present:
        if (buf && sizeof(buf) >= sizeof(bool)) {
            put_unaligned(true, (bool *)buf);
        }
        bytes = 0;
  80416018e1:	b8 00 00 00 00       	mov    $0x0,%eax
        if (buf && sizeof(buf) >= sizeof(bool)) {
  80416018e6:	48 85 d2             	test   %rdx,%rdx
  80416018e9:	74 59                	je     8041601944 <dwarf_read_abbrev_entry+0xa82>
            put_unaligned(true, (bool *)buf);
  80416018eb:	c6 02 01             	movb   $0x1,(%rdx)
  80416018ee:	eb 54                	jmp    8041601944 <dwarf_read_abbrev_entry+0xa82>
        break;
    case DW_FORM_ref_sig8: {
        uint64_t data = get_unaligned(entry, uint64_t);
  80416018f0:	ba 08 00 00 00       	mov    $0x8,%edx
  80416018f5:	48 8b 75 b8          	mov    -0x48(%rbp),%rsi
  80416018f9:	48 8d 7d d0          	lea    -0x30(%rbp),%rdi
  80416018fd:	48 b8 77 94 60 41 80 	movabs $0x8041609477,%rax
  8041601904:	00 00 00 
  8041601907:	ff d0                	call   *%rax
        entry += sizeof(uint64_t);
  8041601909:	48 83 45 b8 08       	addq   $0x8,-0x48(%rbp)
        if (buf && bufsize >= sizeof(uint64_t))
  804160190e:	4d 85 e4             	test   %r12,%r12
  8041601911:	74 06                	je     8041601919 <dwarf_read_abbrev_entry+0xa57>
  8041601913:	41 83 fd 07          	cmp    $0x7,%r13d
  8041601917:	77 07                	ja     8041601920 <dwarf_read_abbrev_entry+0xa5e>
            put_unaligned(data, (uint64_t *)buf);
        bytes = sizeof(uint64_t);
  8041601919:	b8 08 00 00 00       	mov    $0x8,%eax
    } break;
    }
    return bytes;
  804160191e:	eb 24                	jmp    8041601944 <dwarf_read_abbrev_entry+0xa82>
            put_unaligned(data, (uint64_t *)buf);
  8041601920:	ba 08 00 00 00       	mov    $0x8,%edx
  8041601925:	48 8d 75 d0          	lea    -0x30(%rbp),%rsi
  8041601929:	4c 89 e7             	mov    %r12,%rdi
  804160192c:	48 b8 77 94 60 41 80 	movabs $0x8041609477,%rax
  8041601933:	00 00 00 
  8041601936:	ff d0                	call   *%rax
        bytes = sizeof(uint64_t);
  8041601938:	b8 08 00 00 00       	mov    $0x8,%eax
            put_unaligned(data, (uint64_t *)buf);
  804160193d:	eb 05                	jmp    8041601944 <dwarf_read_abbrev_entry+0xa82>
    switch (form) {
  804160193f:	b8 00 00 00 00       	mov    $0x0,%eax
}
  8041601944:	48 83 c4 30          	add    $0x30,%rsp
  8041601948:	5b                   	pop    %rbx
  8041601949:	41 5c                	pop    %r12
  804160194b:	41 5d                	pop    %r13
  804160194d:	41 5e                	pop    %r14
  804160194f:	5d                   	pop    %rbp
  8041601950:	c3                   	ret    
        bytes = sizeof(Dwarf_Small);
  8041601951:	b8 01 00 00 00       	mov    $0x1,%eax
  8041601956:	eb ec                	jmp    8041601944 <dwarf_read_abbrev_entry+0xa82>
        bytes = sizeof(Dwarf_Small);
  8041601958:	b8 01 00 00 00       	mov    $0x1,%eax
  804160195d:	eb e5                	jmp    8041601944 <dwarf_read_abbrev_entry+0xa82>
        bytes = sizeof(Dwarf_Small);
  804160195f:	b8 01 00 00 00       	mov    $0x1,%eax
  8041601964:	eb de                	jmp    8041601944 <dwarf_read_abbrev_entry+0xa82>

0000008041601966 <info_by_address>:
    return -E_NO_ENT;
}

//?
int
info_by_address(const struct Dwarf_Addrs *addrs, uintptr_t addr, Dwarf_Off *store) {
  8041601966:	f3 0f 1e fa          	endbr64 
  804160196a:	55                   	push   %rbp
  804160196b:	48 89 e5             	mov    %rsp,%rbp
  804160196e:	41 57                	push   %r15
  8041601970:	41 56                	push   %r14
  8041601972:	41 55                	push   %r13
  8041601974:	41 54                	push   %r12
  8041601976:	53                   	push   %rbx
  8041601977:	48 83 ec 48          	sub    $0x48,%rsp
  804160197b:	48 89 7d a8          	mov    %rdi,-0x58(%rbp)
  804160197f:	48 89 75 a0          	mov    %rsi,-0x60(%rbp)
  8041601983:	48 89 55 98          	mov    %rdx,-0x68(%rbp)
    const uint8_t *set = addrs->aranges_begin;
  8041601987:	48 8b 5f 10          	mov    0x10(%rdi),%rbx
    while ((unsigned char *)set < addrs->aranges_end) {
  804160198b:	48 3b 5f 18          	cmp    0x18(%rdi),%rbx
  804160198f:	72 25                	jb     80416019b6 <info_by_address+0x50>
    const uint8_t *entry = addrs->info_begin;
  8041601991:	48 8b 45 a8          	mov    -0x58(%rbp),%rax
  8041601995:	48 8b 58 20          	mov    0x20(%rax),%rbx
  8041601999:	48 89 5d b8          	mov    %rbx,-0x48(%rbp)
    while (entry < addrs->info_end) {
  804160199d:	48 39 58 28          	cmp    %rbx,0x28(%rax)
  80416019a1:	0f 86 b4 03 00 00    	jbe    8041601d5b <info_by_address+0x3f5>
                entry += dwarf_read_abbrev_entry(entry, form, NULL, 0, address_size);
  80416019a7:	49 bf c2 0e 60 41 80 	movabs $0x8041600ec2,%r15
  80416019ae:	00 00 00 
  80416019b1:	e9 df 02 00 00       	jmp    8041601c95 <info_by_address+0x32f>
    uint64_t initial_len = get_unaligned(addr, uint32_t);
  80416019b6:	ba 04 00 00 00       	mov    $0x4,%edx
  80416019bb:	48 89 de             	mov    %rbx,%rsi
  80416019be:	48 8d 7d c8          	lea    -0x38(%rbp),%rdi
  80416019c2:	48 b8 77 94 60 41 80 	movabs $0x8041609477,%rax
  80416019c9:	00 00 00 
  80416019cc:	ff d0                	call   *%rax
  80416019ce:	8b 55 c8             	mov    -0x38(%rbp),%edx
    if (initial_len >= DW_EXT_LO && initial_len <= DW_EXT_HI) {
  80416019d1:	48 b8 10 00 00 00 ff 	movabs $0xffffffff00000010,%rax
  80416019d8:	ff ff ff 
  80416019db:	48 01 d0             	add    %rdx,%rax
  80416019de:	48 83 f8 0f          	cmp    $0xf,%rax
  80416019e2:	77 ad                	ja     8041601991 <info_by_address+0x2b>
        if (initial_len == DW_EXT_DWARF64) {
  80416019e4:	b8 ff ff ff ff       	mov    $0xffffffff,%eax
  80416019e9:	48 39 c2             	cmp    %rax,%rdx
  80416019ec:	74 1d                	je     8041601a0b <info_by_address+0xa5>
            cprintf("Unknown DWARF extension\n");
  80416019ee:	48 bf 40 a4 60 41 80 	movabs $0x804160a440,%rdi
  80416019f5:	00 00 00 
  80416019f8:	b8 00 00 00 00       	mov    $0x0,%eax
  80416019fd:	48 ba b7 6f 60 41 80 	movabs $0x8041606fb7,%rdx
  8041601a04:	00 00 00 
  8041601a07:	ff d2                	call   *%rdx
            count = 0;
  8041601a09:	eb 86                	jmp    8041601991 <info_by_address+0x2b>
            *len = get_unaligned((uint64_t *)addr + sizeof(uint32_t), uint64_t);
  8041601a0b:	48 8d 73 20          	lea    0x20(%rbx),%rsi
  8041601a0f:	ba 08 00 00 00       	mov    $0x8,%edx
  8041601a14:	48 8d 7d c8          	lea    -0x38(%rbp),%rdi
  8041601a18:	48 b8 77 94 60 41 80 	movabs $0x8041609477,%rax
  8041601a1f:	00 00 00 
  8041601a22:	ff d0                	call   *%rax
            count += sizeof(uint64_t);
  8041601a24:	e9 68 ff ff ff       	jmp    8041601991 <info_by_address+0x2b>
            *len = get_unaligned((uint64_t *)addr + sizeof(uint32_t), uint64_t);
  8041601a29:	48 8b 45 b8          	mov    -0x48(%rbp),%rax
  8041601a2d:	48 8d 70 20          	lea    0x20(%rax),%rsi
  8041601a31:	ba 08 00 00 00       	mov    $0x8,%edx
  8041601a36:	48 8d 7d c8          	lea    -0x38(%rbp),%rdi
  8041601a3a:	48 b8 77 94 60 41 80 	movabs $0x8041609477,%rax
  8041601a41:	00 00 00 
  8041601a44:	ff d0                	call   *%rax
  8041601a46:	48 8b 45 c8          	mov    -0x38(%rbp),%rax
            count += sizeof(uint64_t);
  8041601a4a:	41 bc 0c 00 00 00    	mov    $0xc,%r12d
  8041601a50:	e9 13 03 00 00       	jmp    8041601d68 <info_by_address+0x402>
        assert(version == 4 || version == 2);
  8041601a55:	48 b9 59 a4 60 41 80 	movabs $0x804160a459,%rcx
  8041601a5c:	00 00 00 
  8041601a5f:	48 ba 76 a4 60 41 80 	movabs $0x804160a476,%rdx
  8041601a66:	00 00 00 
  8041601a69:	be 1f 01 00 00       	mov    $0x11f,%esi
  8041601a6e:	48 bf 8b a4 60 41 80 	movabs $0x804160a48b,%rdi
  8041601a75:	00 00 00 
  8041601a78:	b8 00 00 00 00       	mov    $0x0,%eax
  8041601a7d:	49 b8 e3 03 60 41 80 	movabs $0x80416003e3,%r8
  8041601a84:	00 00 00 
  8041601a87:	41 ff d0             	call   *%r8
        assert(address_size == sizeof(uintptr_t));
  8041601a8a:	48 b9 c8 a5 60 41 80 	movabs $0x804160a5c8,%rcx
  8041601a91:	00 00 00 
  8041601a94:	48 ba 76 a4 60 41 80 	movabs $0x804160a476,%rdx
  8041601a9b:	00 00 00 
  8041601a9e:	be 24 01 00 00       	mov    $0x124,%esi
  8041601aa3:	48 bf 8b a4 60 41 80 	movabs $0x804160a48b,%rdi
  8041601aaa:	00 00 00 
  8041601aad:	b8 00 00 00 00       	mov    $0x0,%eax
  8041601ab2:	49 b8 e3 03 60 41 80 	movabs $0x80416003e3,%r8
  8041601ab9:	00 00 00 
  8041601abc:	41 ff d0             	call   *%r8
        assert(abbrev_code);
  8041601abf:	48 b9 98 a4 60 41 80 	movabs $0x804160a498,%rcx
  8041601ac6:	00 00 00 
  8041601ac9:	48 ba 76 a4 60 41 80 	movabs $0x804160a476,%rdx
  8041601ad0:	00 00 00 
  8041601ad3:	be 29 01 00 00       	mov    $0x129,%esi
  8041601ad8:	48 bf 8b a4 60 41 80 	movabs $0x804160a48b,%rdi
  8041601adf:	00 00 00 
  8041601ae2:	b8 00 00 00 00       	mov    $0x0,%eax
  8041601ae7:	49 b8 e3 03 60 41 80 	movabs $0x80416003e3,%r8
  8041601aee:	00 00 00 
  8041601af1:	41 ff d0             	call   *%r8
        assert(table_abbrev_code == abbrev_code);
  8041601af4:	48 b9 f0 a5 60 41 80 	movabs $0x804160a5f0,%rcx
  8041601afb:	00 00 00 
  8041601afe:	48 ba 76 a4 60 41 80 	movabs $0x804160a476,%rdx
  8041601b05:	00 00 00 
  8041601b08:	be 2f 01 00 00       	mov    $0x12f,%esi
  8041601b0d:	48 bf 8b a4 60 41 80 	movabs $0x804160a48b,%rdi
  8041601b14:	00 00 00 
  8041601b17:	b8 00 00 00 00       	mov    $0x0,%eax
  8041601b1c:	49 b8 e3 03 60 41 80 	movabs $0x80416003e3,%r8
  8041601b23:	00 00 00 
  8041601b26:	41 ff d0             	call   *%r8
        assert(tag == DW_TAG_compile_unit);
  8041601b29:	48 b9 a4 a4 60 41 80 	movabs $0x804160a4a4,%rcx
  8041601b30:	00 00 00 
  8041601b33:	48 ba 76 a4 60 41 80 	movabs $0x804160a476,%rdx
  8041601b3a:	00 00 00 
  8041601b3d:	be 32 01 00 00       	mov    $0x132,%esi
  8041601b42:	48 bf 8b a4 60 41 80 	movabs $0x804160a48b,%rdi
  8041601b49:	00 00 00 
  8041601b4c:	b8 00 00 00 00       	mov    $0x0,%eax
  8041601b51:	49 b8 e3 03 60 41 80 	movabs $0x80416003e3,%r8
  8041601b58:	00 00 00 
  8041601b5b:	41 ff d0             	call   *%r8
                entry += dwarf_read_abbrev_entry(entry, form, &low_pc, sizeof(low_pc), address_size);
  8041601b5e:	41 b8 08 00 00 00    	mov    $0x8,%r8d
  8041601b64:	b9 08 00 00 00       	mov    $0x8,%ecx
  8041601b69:	48 8d 55 c0          	lea    -0x40(%rbp),%rdx
  8041601b6d:	44 89 e6             	mov    %r12d,%esi
  8041601b70:	4c 89 f7             	mov    %r14,%rdi
  8041601b73:	41 ff d7             	call   *%r15
  8041601b76:	48 98                	cltq   
  8041601b78:	49 01 c6             	add    %rax,%r14
    uint64_t result = 0;
  8041601b7b:	48 89 da             	mov    %rbx,%rdx
    size_t shift = 0, count = 0;
  8041601b7e:	b8 00 00 00 00       	mov    $0x0,%eax
  8041601b83:	b9 00 00 00 00       	mov    $0x0,%ecx
    uint64_t result = 0;
  8041601b88:	41 bd 00 00 00 00    	mov    $0x0,%r13d
        byte = *addr++;
  8041601b8e:	48 83 c2 01          	add    $0x1,%rdx
  8041601b92:	0f b6 7a ff          	movzbl -0x1(%rdx),%edi
        result |= (byte & 0x7FULL) << shift;
  8041601b96:	48 89 fe             	mov    %rdi,%rsi
  8041601b99:	83 e6 7f             	and    $0x7f,%esi
  8041601b9c:	48 d3 e6             	shl    %cl,%rsi
  8041601b9f:	49 09 f5             	or     %rsi,%r13
        shift += 7;
  8041601ba2:	48 83 c1 07          	add    $0x7,%rcx
        count++;
  8041601ba6:	48 89 c6             	mov    %rax,%rsi
  8041601ba9:	48 83 c0 01          	add    $0x1,%rax
    } while (byte & 0x80 && shift < 64);
  8041601bad:	40 84 ff             	test   %dil,%dil
  8041601bb0:	79 06                	jns    8041601bb8 <info_by_address+0x252>
  8041601bb2:	48 83 f9 3f          	cmp    $0x3f,%rcx
  8041601bb6:	76 d6                	jbe    8041601b8e <info_by_address+0x228>
    while (byte & 0x80) {
  8041601bb8:	40 84 ff             	test   %dil,%dil
  8041601bbb:	79 12                	jns    8041601bcf <info_by_address+0x269>
        byte = *addr++;
  8041601bbd:	48 f7 d6             	not    %rsi
  8041601bc0:	48 01 f2             	add    %rsi,%rdx
  8041601bc3:	0f b6 0c 02          	movzbl (%rdx,%rax,1),%ecx
        count++;
  8041601bc7:	48 83 c0 01          	add    $0x1,%rax
    while (byte & 0x80) {
  8041601bcb:	84 c9                	test   %cl,%cl
  8041601bcd:	78 f4                	js     8041601bc3 <info_by_address+0x25d>
            abbrev_entry += dwarf_read_uleb128(abbrev_entry, &name);
  8041601bcf:	48 8d 14 03          	lea    (%rbx,%rax,1),%rdx
  8041601bd3:	48 89 d6             	mov    %rdx,%rsi
    size_t shift = 0, count = 0;
  8041601bd6:	b8 00 00 00 00       	mov    $0x0,%eax
  8041601bdb:	b9 00 00 00 00       	mov    $0x0,%ecx
    uint64_t result = 0;
  8041601be0:	41 bc 00 00 00 00    	mov    $0x0,%r12d
        byte = *addr++;
  8041601be6:	48 83 c6 01          	add    $0x1,%rsi
  8041601bea:	44 0f b6 46 ff       	movzbl -0x1(%rsi),%r8d
        result |= (byte & 0x7FULL) << shift;
  8041601bef:	4c 89 c7             	mov    %r8,%rdi
  8041601bf2:	83 e7 7f             	and    $0x7f,%edi
  8041601bf5:	48 d3 e7             	shl    %cl,%rdi
  8041601bf8:	49 09 fc             	or     %rdi,%r12
        shift += 7;
  8041601bfb:	48 83 c1 07          	add    $0x7,%rcx
        count++;
  8041601bff:	48 89 c7             	mov    %rax,%rdi
  8041601c02:	48 83 c0 01          	add    $0x1,%rax
    } while (byte & 0x80 && shift < 64);
  8041601c06:	45 84 c0             	test   %r8b,%r8b
  8041601c09:	79 06                	jns    8041601c11 <info_by_address+0x2ab>
  8041601c0b:	48 83 f9 3f          	cmp    $0x3f,%rcx
  8041601c0f:	76 d5                	jbe    8041601be6 <info_by_address+0x280>
    while (byte & 0x80) {
  8041601c11:	45 84 c0             	test   %r8b,%r8b
  8041601c14:	79 12                	jns    8041601c28 <info_by_address+0x2c2>
        byte = *addr++;
  8041601c16:	48 f7 d7             	not    %rdi
  8041601c19:	48 01 fe             	add    %rdi,%rsi
  8041601c1c:	0f b6 0c 06          	movzbl (%rsi,%rax,1),%ecx
        count++;
  8041601c20:	48 83 c0 01          	add    $0x1,%rax
    while (byte & 0x80) {
  8041601c24:	84 c9                	test   %cl,%cl
  8041601c26:	78 f4                	js     8041601c1c <info_by_address+0x2b6>
            abbrev_entry += dwarf_read_uleb128(abbrev_entry, &form);
  8041601c28:	48 8d 1c 02          	lea    (%rdx,%rax,1),%rbx
            if (name == DW_AT_low_pc) {
  8041601c2c:	49 83 fd 11          	cmp    $0x11,%r13
  8041601c30:	0f 84 28 ff ff ff    	je     8041601b5e <info_by_address+0x1f8>
            } else if (name == DW_AT_high_pc) {
  8041601c36:	49 83 fd 12          	cmp    $0x12,%r13
  8041601c3a:	0f 84 c6 00 00 00    	je     8041601d06 <info_by_address+0x3a0>
                entry += dwarf_read_abbrev_entry(entry, form, NULL, 0, address_size);
  8041601c40:	41 b8 08 00 00 00    	mov    $0x8,%r8d
  8041601c46:	b9 00 00 00 00       	mov    $0x0,%ecx
  8041601c4b:	ba 00 00 00 00       	mov    $0x0,%edx
  8041601c50:	44 89 e6             	mov    %r12d,%esi
  8041601c53:	4c 89 f7             	mov    %r14,%rdi
  8041601c56:	41 ff d7             	call   *%r15
  8041601c59:	48 98                	cltq   
  8041601c5b:	49 01 c6             	add    %rax,%r14
        } while (name || form);
  8041601c5e:	4d 09 ec             	or     %r13,%r12
  8041601c61:	0f 85 14 ff ff ff    	jne    8041601b7b <info_by_address+0x215>
        if (p >= low_pc && p <= high_pc) {
  8041601c67:	48 8b 45 a0          	mov    -0x60(%rbp),%rax
  8041601c6b:	48 3b 45 c0          	cmp    -0x40(%rbp),%rax
  8041601c6f:	72 0a                	jb     8041601c7b <info_by_address+0x315>
  8041601c71:	48 3b 45 c8          	cmp    -0x38(%rbp),%rax
  8041601c75:	0f 86 bf 00 00 00    	jbe    8041601d3a <info_by_address+0x3d4>
    while (entry < addrs->info_end) {
  8041601c7b:	48 8b 45 a8          	mov    -0x58(%rbp),%rax
  8041601c7f:	48 8b 5d b0          	mov    -0x50(%rbp),%rbx
  8041601c83:	48 3b 58 28          	cmp    0x28(%rax),%rbx
  8041601c87:	0f 83 c7 00 00 00    	jae    8041601d54 <info_by_address+0x3ee>
        entry = entry_end;
  8041601c8d:	48 8b 45 b0          	mov    -0x50(%rbp),%rax
  8041601c91:	48 89 45 b8          	mov    %rax,-0x48(%rbp)
    uint64_t initial_len = get_unaligned(addr, uint32_t);
  8041601c95:	ba 04 00 00 00       	mov    $0x4,%edx
  8041601c9a:	48 8b 75 b8          	mov    -0x48(%rbp),%rsi
  8041601c9e:	48 8d 7d c8          	lea    -0x38(%rbp),%rdi
  8041601ca2:	48 b8 77 94 60 41 80 	movabs $0x8041609477,%rax
  8041601ca9:	00 00 00 
  8041601cac:	ff d0                	call   *%rax
  8041601cae:	8b 45 c8             	mov    -0x38(%rbp),%eax
    if (initial_len >= DW_EXT_LO && initial_len <= DW_EXT_HI) {
  8041601cb1:	48 bb 10 00 00 00 ff 	movabs $0xffffffff00000010,%rbx
  8041601cb8:	ff ff ff 
  8041601cbb:	48 8d 14 18          	lea    (%rax,%rbx,1),%rdx
  8041601cbf:	48 83 fa 0f          	cmp    $0xf,%rdx
  8041601cc3:	0f 87 99 00 00 00    	ja     8041601d62 <info_by_address+0x3fc>
        if (initial_len == DW_EXT_DWARF64) {
  8041601cc9:	ba ff ff ff ff       	mov    $0xffffffff,%edx
  8041601cce:	48 39 d0             	cmp    %rdx,%rax
  8041601cd1:	0f 84 52 fd ff ff    	je     8041601a29 <info_by_address+0xc3>
            cprintf("Unknown DWARF extension\n");
  8041601cd7:	48 bf 40 a4 60 41 80 	movabs $0x804160a440,%rdi
  8041601cde:	00 00 00 
  8041601ce1:	b8 00 00 00 00       	mov    $0x0,%eax
  8041601ce6:	48 ba b7 6f 60 41 80 	movabs $0x8041606fb7,%rdx
  8041601ced:	00 00 00 
  8041601cf0:	ff d2                	call   *%rdx
        if (!count) return -E_BAD_DWARF;
  8041601cf2:	b8 fa ff ff ff       	mov    $0xfffffffa,%eax
    int res = info_by_address_debug_aranges(addrs, addr, store);
    if (res < 0) res = info_by_address_debug_info(addrs, addr, store);
    return res;
}
  8041601cf7:	48 83 c4 48          	add    $0x48,%rsp
  8041601cfb:	5b                   	pop    %rbx
  8041601cfc:	41 5c                	pop    %r12
  8041601cfe:	41 5d                	pop    %r13
  8041601d00:	41 5e                	pop    %r14
  8041601d02:	41 5f                	pop    %r15
  8041601d04:	5d                   	pop    %rbp
  8041601d05:	c3                   	ret    
                entry += dwarf_read_abbrev_entry(entry, form, &high_pc, sizeof(high_pc), address_size);
  8041601d06:	41 b8 08 00 00 00    	mov    $0x8,%r8d
  8041601d0c:	b9 08 00 00 00       	mov    $0x8,%ecx
  8041601d11:	48 8d 55 c8          	lea    -0x38(%rbp),%rdx
  8041601d15:	44 89 e6             	mov    %r12d,%esi
  8041601d18:	4c 89 f7             	mov    %r14,%rdi
  8041601d1b:	41 ff d7             	call   *%r15
  8041601d1e:	48 98                	cltq   
  8041601d20:	49 01 c6             	add    %rax,%r14
                if (form != DW_FORM_addr) high_pc += low_pc;
  8041601d23:	49 83 fc 01          	cmp    $0x1,%r12
  8041601d27:	0f 84 4e fe ff ff    	je     8041601b7b <info_by_address+0x215>
  8041601d2d:	48 8b 45 c0          	mov    -0x40(%rbp),%rax
  8041601d31:	48 01 45 c8          	add    %rax,-0x38(%rbp)
  8041601d35:	e9 41 fe ff ff       	jmp    8041601b7b <info_by_address+0x215>
            *store = (const unsigned char *)header - addrs->info_begin;
  8041601d3a:	48 8b 5d a8          	mov    -0x58(%rbp),%rbx
  8041601d3e:	48 8b 45 b8          	mov    -0x48(%rbp),%rax
  8041601d42:	48 2b 43 20          	sub    0x20(%rbx),%rax
  8041601d46:	48 8b 5d 98          	mov    -0x68(%rbp),%rbx
  8041601d4a:	48 89 03             	mov    %rax,(%rbx)
            return 0;
  8041601d4d:	b8 00 00 00 00       	mov    $0x0,%eax
  8041601d52:	eb a3                	jmp    8041601cf7 <info_by_address+0x391>
    return -E_NO_ENT;
  8041601d54:	b8 f6 ff ff ff       	mov    $0xfffffff6,%eax
  8041601d59:	eb 9c                	jmp    8041601cf7 <info_by_address+0x391>
  8041601d5b:	b8 f6 ff ff ff       	mov    $0xfffffff6,%eax
    return res;
  8041601d60:	eb 95                	jmp    8041601cf7 <info_by_address+0x391>
    uint64_t count = sizeof(uint32_t);
  8041601d62:	41 bc 04 00 00 00    	mov    $0x4,%r12d
        entry += count = dwarf_entry_len(entry, &len);
  8041601d68:	4c 03 65 b8          	add    -0x48(%rbp),%r12
        const uint8_t *entry_end = entry + len;
  8041601d6c:	4c 01 e0             	add    %r12,%rax
  8041601d6f:	48 89 45 b0          	mov    %rax,-0x50(%rbp)
        Dwarf_Half version = get_unaligned(entry, Dwarf_Half);
  8041601d73:	ba 02 00 00 00       	mov    $0x2,%edx
  8041601d78:	4c 89 e6             	mov    %r12,%rsi
  8041601d7b:	48 8d 7d c8          	lea    -0x38(%rbp),%rdi
  8041601d7f:	48 b8 77 94 60 41 80 	movabs $0x8041609477,%rax
  8041601d86:	00 00 00 
  8041601d89:	ff d0                	call   *%rax
        entry += sizeof(Dwarf_Half);
  8041601d8b:	49 8d 74 24 02       	lea    0x2(%r12),%rsi
        assert(version == 4 || version == 2);
  8041601d90:	0f b7 45 c8          	movzwl -0x38(%rbp),%eax
  8041601d94:	83 e8 02             	sub    $0x2,%eax
  8041601d97:	66 a9 fd ff          	test   $0xfffd,%ax
  8041601d9b:	0f 85 b4 fc ff ff    	jne    8041601a55 <info_by_address+0xef>
        Dwarf_Off abbrev_offset = get_unaligned(entry, uint32_t);
  8041601da1:	ba 04 00 00 00       	mov    $0x4,%edx
  8041601da6:	48 8d 7d c8          	lea    -0x38(%rbp),%rdi
  8041601daa:	49 be 77 94 60 41 80 	movabs $0x8041609477,%r14
  8041601db1:	00 00 00 
  8041601db4:	41 ff d6             	call   *%r14
  8041601db7:	8b 5d c8             	mov    -0x38(%rbp),%ebx
        entry += sizeof(uint32_t);
  8041601dba:	49 8d 74 24 06       	lea    0x6(%r12),%rsi
        Dwarf_Small address_size = get_unaligned(entry, Dwarf_Small);
  8041601dbf:	ba 01 00 00 00       	mov    $0x1,%edx
  8041601dc4:	48 8d 7d c8          	lea    -0x38(%rbp),%rdi
  8041601dc8:	41 ff d6             	call   *%r14
        entry += sizeof(Dwarf_Small);
  8041601dcb:	4d 8d 74 24 07       	lea    0x7(%r12),%r14
        assert(address_size == sizeof(uintptr_t));
  8041601dd0:	80 7d c8 08          	cmpb   $0x8,-0x38(%rbp)
  8041601dd4:	0f 85 b0 fc ff ff    	jne    8041601a8a <info_by_address+0x124>
  8041601dda:	4c 89 f0             	mov    %r14,%rax
    size_t shift = 0, count = 0;
  8041601ddd:	b9 00 00 00 00       	mov    $0x0,%ecx
    uint64_t result = 0;
  8041601de2:	be 00 00 00 00       	mov    $0x0,%esi
        byte = *addr++;
  8041601de7:	48 83 c0 01          	add    $0x1,%rax
  8041601deb:	0f b6 78 ff          	movzbl -0x1(%rax),%edi
        result |= (byte & 0x7FULL) << shift;
  8041601def:	48 89 fa             	mov    %rdi,%rdx
  8041601df2:	83 e2 7f             	and    $0x7f,%edx
  8041601df5:	48 d3 e2             	shl    %cl,%rdx
  8041601df8:	48 09 d6             	or     %rdx,%rsi
        shift += 7;
  8041601dfb:	48 83 c1 07          	add    $0x7,%rcx
        count++;
  8041601dff:	4c 8d 40 f9          	lea    -0x7(%rax),%r8
  8041601e03:	4c 89 c2             	mov    %r8,%rdx
  8041601e06:	4c 29 e2             	sub    %r12,%rdx
    } while (byte & 0x80 && shift < 64);
  8041601e09:	40 84 ff             	test   %dil,%dil
  8041601e0c:	79 06                	jns    8041601e14 <info_by_address+0x4ae>
  8041601e0e:	48 83 f9 3f          	cmp    $0x3f,%rcx
  8041601e12:	76 d3                	jbe    8041601de7 <info_by_address+0x481>
    while (byte & 0x80) {
  8041601e14:	40 84 ff             	test   %dil,%dil
  8041601e17:	79 12                	jns    8041601e2b <info_by_address+0x4c5>
        byte = *addr++;
  8041601e19:	4d 29 c4             	sub    %r8,%r12
  8041601e1c:	4c 01 e0             	add    %r12,%rax
  8041601e1f:	0f b6 0c 10          	movzbl (%rax,%rdx,1),%ecx
        count++;
  8041601e23:	48 83 c2 01          	add    $0x1,%rdx
    while (byte & 0x80) {
  8041601e27:	84 c9                	test   %cl,%cl
  8041601e29:	78 f4                	js     8041601e1f <info_by_address+0x4b9>
        entry += dwarf_read_uleb128(entry, &abbrev_code);
  8041601e2b:	49 01 d6             	add    %rdx,%r14
        assert(abbrev_code);
  8041601e2e:	48 85 f6             	test   %rsi,%rsi
  8041601e31:	0f 84 88 fc ff ff    	je     8041601abf <info_by_address+0x159>
        const uint8_t *abbrev_entry = addrs->abbrev_begin + abbrev_offset;
  8041601e37:	48 8b 45 a8          	mov    -0x58(%rbp),%rax
  8041601e3b:	48 03 18             	add    (%rax),%rbx
  8041601e3e:	48 89 da             	mov    %rbx,%rdx
    size_t shift = 0, count = 0;
  8041601e41:	b8 00 00 00 00       	mov    $0x0,%eax
  8041601e46:	b9 00 00 00 00       	mov    $0x0,%ecx
    uint64_t result = 0;
  8041601e4b:	41 b8 00 00 00 00    	mov    $0x0,%r8d
        byte = *addr++;
  8041601e51:	48 83 c2 01          	add    $0x1,%rdx
  8041601e55:	44 0f b6 4a ff       	movzbl -0x1(%rdx),%r9d
        result |= (byte & 0x7FULL) << shift;
  8041601e5a:	4c 89 cf             	mov    %r9,%rdi
  8041601e5d:	83 e7 7f             	and    $0x7f,%edi
  8041601e60:	48 d3 e7             	shl    %cl,%rdi
  8041601e63:	49 09 f8             	or     %rdi,%r8
        shift += 7;
  8041601e66:	48 83 c1 07          	add    $0x7,%rcx
        count++;
  8041601e6a:	48 89 c7             	mov    %rax,%rdi
  8041601e6d:	48 83 c0 01          	add    $0x1,%rax
    } while (byte & 0x80 && shift < 64);
  8041601e71:	45 84 c9             	test   %r9b,%r9b
  8041601e74:	79 06                	jns    8041601e7c <info_by_address+0x516>
  8041601e76:	48 83 f9 3f          	cmp    $0x3f,%rcx
  8041601e7a:	76 d5                	jbe    8041601e51 <info_by_address+0x4eb>
    while (byte & 0x80) {
  8041601e7c:	45 84 c9             	test   %r9b,%r9b
  8041601e7f:	79 12                	jns    8041601e93 <info_by_address+0x52d>
        byte = *addr++;
  8041601e81:	48 f7 d7             	not    %rdi
  8041601e84:	48 01 fa             	add    %rdi,%rdx
  8041601e87:	0f b6 0c 02          	movzbl (%rdx,%rax,1),%ecx
        count++;
  8041601e8b:	48 83 c0 01          	add    $0x1,%rax
    while (byte & 0x80) {
  8041601e8f:	84 c9                	test   %cl,%cl
  8041601e91:	78 f4                	js     8041601e87 <info_by_address+0x521>
        abbrev_entry += dwarf_read_uleb128(abbrev_entry, &table_abbrev_code);
  8041601e93:	48 8d 3c 03          	lea    (%rbx,%rax,1),%rdi
        assert(table_abbrev_code == abbrev_code);
  8041601e97:	4c 39 c6             	cmp    %r8,%rsi
  8041601e9a:	0f 85 54 fc ff ff    	jne    8041601af4 <info_by_address+0x18e>
  8041601ea0:	48 89 fa             	mov    %rdi,%rdx
    size_t shift = 0, count = 0;
  8041601ea3:	b8 00 00 00 00       	mov    $0x0,%eax
  8041601ea8:	b9 00 00 00 00       	mov    $0x0,%ecx
    uint64_t result = 0;
  8041601ead:	41 b8 00 00 00 00    	mov    $0x0,%r8d
        byte = *addr++;
  8041601eb3:	48 83 c2 01          	add    $0x1,%rdx
  8041601eb7:	44 0f b6 4a ff       	movzbl -0x1(%rdx),%r9d
        result |= (byte & 0x7FULL) << shift;
  8041601ebc:	4c 89 ce             	mov    %r9,%rsi
  8041601ebf:	83 e6 7f             	and    $0x7f,%esi
  8041601ec2:	48 d3 e6             	shl    %cl,%rsi
  8041601ec5:	49 09 f0             	or     %rsi,%r8
        shift += 7;
  8041601ec8:	48 83 c1 07          	add    $0x7,%rcx
        count++;
  8041601ecc:	48 89 c6             	mov    %rax,%rsi
  8041601ecf:	48 83 c0 01          	add    $0x1,%rax
    } while (byte & 0x80 && shift < 64);
  8041601ed3:	45 84 c9             	test   %r9b,%r9b
  8041601ed6:	79 06                	jns    8041601ede <info_by_address+0x578>
  8041601ed8:	48 83 f9 3f          	cmp    $0x3f,%rcx
  8041601edc:	76 d5                	jbe    8041601eb3 <info_by_address+0x54d>
    while (byte & 0x80) {
  8041601ede:	45 84 c9             	test   %r9b,%r9b
  8041601ee1:	79 12                	jns    8041601ef5 <info_by_address+0x58f>
        byte = *addr++;
  8041601ee3:	48 f7 d6             	not    %rsi
  8041601ee6:	48 01 f2             	add    %rsi,%rdx
  8041601ee9:	0f b6 0c 02          	movzbl (%rdx,%rax,1),%ecx
        count++;
  8041601eed:	48 83 c0 01          	add    $0x1,%rax
    while (byte & 0x80) {
  8041601ef1:	84 c9                	test   %cl,%cl
  8041601ef3:	78 f4                	js     8041601ee9 <info_by_address+0x583>
        assert(tag == DW_TAG_compile_unit);
  8041601ef5:	49 83 f8 11          	cmp    $0x11,%r8
  8041601ef9:	0f 85 2a fc ff ff    	jne    8041601b29 <info_by_address+0x1c3>
        abbrev_entry += sizeof(Dwarf_Small);
  8041601eff:	48 8d 5c 07 01       	lea    0x1(%rdi,%rax,1),%rbx
        uintptr_t low_pc = 0, high_pc = 0;
  8041601f04:	48 c7 45 c0 00 00 00 	movq   $0x0,-0x40(%rbp)
  8041601f0b:	00 
  8041601f0c:	48 c7 45 c8 00 00 00 	movq   $0x0,-0x38(%rbp)
  8041601f13:	00 
  8041601f14:	e9 62 fc ff ff       	jmp    8041601b7b <info_by_address+0x215>

0000008041601f19 <file_name_by_info>:
                              
int
file_name_by_info(const struct Dwarf_Addrs *addrs, Dwarf_Off offset, char **buf, Dwarf_Off *line_off) {
  8041601f19:	f3 0f 1e fa          	endbr64 
  8041601f1d:	55                   	push   %rbp
  8041601f1e:	48 89 e5             	mov    %rsp,%rbp
  8041601f21:	41 57                	push   %r15
  8041601f23:	41 56                	push   %r14
  8041601f25:	41 55                	push   %r13
  8041601f27:	41 54                	push   %r12
  8041601f29:	53                   	push   %rbx
  8041601f2a:	48 83 ec 38          	sub    $0x38,%rsp
  8041601f2e:	48 89 7d a8          	mov    %rdi,-0x58(%rbp)
  8041601f32:	48 89 55 b8          	mov    %rdx,-0x48(%rbp)
  8041601f36:	48 89 4d b0          	mov    %rcx,-0x50(%rbp)
    if (offset > addrs->info_end - addrs->info_begin) return -E_INVAL;
  8041601f3a:	48 8b 5f 20          	mov    0x20(%rdi),%rbx
  8041601f3e:	48 8b 47 28          	mov    0x28(%rdi),%rax
  8041601f42:	48 89 45 a0          	mov    %rax,-0x60(%rbp)
  8041601f46:	48 29 d8             	sub    %rbx,%rax
  8041601f49:	48 39 f0             	cmp    %rsi,%rax
  8041601f4c:	0f 82 34 03 00 00    	jb     8041602286 <file_name_by_info+0x36d>

    const uint8_t *entry = addrs->info_begin + offset;
  8041601f52:	48 01 f3             	add    %rsi,%rbx
    uint64_t initial_len = get_unaligned(addr, uint32_t);
  8041601f55:	ba 04 00 00 00       	mov    $0x4,%edx
  8041601f5a:	48 89 de             	mov    %rbx,%rsi
  8041601f5d:	48 8d 7d c8          	lea    -0x38(%rbp),%rdi
  8041601f61:	48 b8 77 94 60 41 80 	movabs $0x8041609477,%rax
  8041601f68:	00 00 00 
  8041601f6b:	ff d0                	call   *%rax
  8041601f6d:	8b 55 c8             	mov    -0x38(%rbp),%edx
    if (initial_len >= DW_EXT_LO && initial_len <= DW_EXT_HI) {
  8041601f70:	48 b8 10 00 00 00 ff 	movabs $0xffffffff00000010,%rax
  8041601f77:	ff ff ff 
  8041601f7a:	48 01 d0             	add    %rdx,%rax
  8041601f7d:	48 83 f8 0f          	cmp    $0xf,%rax
  8041601f81:	0f 87 09 03 00 00    	ja     8041602290 <file_name_by_info+0x377>
        if (initial_len == DW_EXT_DWARF64) {
  8041601f87:	b8 ff ff ff ff       	mov    $0xffffffff,%eax
  8041601f8c:	48 39 c2             	cmp    %rax,%rdx
  8041601f8f:	74 25                	je     8041601fb6 <file_name_by_info+0x9d>
            cprintf("Unknown DWARF extension\n");
  8041601f91:	48 bf 40 a4 60 41 80 	movabs $0x804160a440,%rdi
  8041601f98:	00 00 00 
  8041601f9b:	b8 00 00 00 00       	mov    $0x0,%eax
  8041601fa0:	48 ba b7 6f 60 41 80 	movabs $0x8041606fb7,%rdx
  8041601fa7:	00 00 00 
  8041601faa:	ff d2                	call   *%rdx
    uint32_t count;
    uint64_t len = 0;
    entry += count = dwarf_entry_len(entry, &len);
    if (!count) return -E_BAD_DWARF;
  8041601fac:	b8 fa ff ff ff       	mov    $0xfffffffa,%eax
  8041601fb1:	e9 41 02 00 00       	jmp    80416021f7 <file_name_by_info+0x2de>
            *len = get_unaligned((uint64_t *)addr + sizeof(uint32_t), uint64_t);
  8041601fb6:	48 8d 73 20          	lea    0x20(%rbx),%rsi
  8041601fba:	ba 08 00 00 00       	mov    $0x8,%edx
  8041601fbf:	48 8d 7d c8          	lea    -0x38(%rbp),%rdi
  8041601fc3:	48 b8 77 94 60 41 80 	movabs $0x8041609477,%rax
  8041601fca:	00 00 00 
  8041601fcd:	ff d0                	call   *%rax
            count += sizeof(uint64_t);
  8041601fcf:	b8 0c 00 00 00       	mov    $0xc,%eax
  8041601fd4:	e9 bc 02 00 00       	jmp    8041602295 <file_name_by_info+0x37c>

    /* Parse compilation unit header */
    Dwarf_Half version = get_unaligned(entry, Dwarf_Half);
    entry += sizeof(Dwarf_Half);
    assert(version == 4 || version == 2);
  8041601fd9:	48 b9 59 a4 60 41 80 	movabs $0x804160a459,%rcx
  8041601fe0:	00 00 00 
  8041601fe3:	48 ba 76 a4 60 41 80 	movabs $0x804160a476,%rdx
  8041601fea:	00 00 00 
  8041601fed:	be 63 01 00 00       	mov    $0x163,%esi
  8041601ff2:	48 bf 8b a4 60 41 80 	movabs $0x804160a48b,%rdi
  8041601ff9:	00 00 00 
  8041601ffc:	b8 00 00 00 00       	mov    $0x0,%eax
  8041602001:	49 b8 e3 03 60 41 80 	movabs $0x80416003e3,%r8
  8041602008:	00 00 00 
  804160200b:	41 ff d0             	call   *%r8
    Dwarf_Off abbrev_offset = get_unaligned(entry, uint32_t);
    entry += sizeof(uint32_t);
    Dwarf_Small address_size = get_unaligned(entry, Dwarf_Small);
    entry += sizeof(Dwarf_Small);
    assert(address_size == sizeof(uintptr_t));
  804160200e:	48 b9 c8 a5 60 41 80 	movabs $0x804160a5c8,%rcx
  8041602015:	00 00 00 
  8041602018:	48 ba 76 a4 60 41 80 	movabs $0x804160a476,%rdx
  804160201f:	00 00 00 
  8041602022:	be 68 01 00 00       	mov    $0x168,%esi
  8041602027:	48 bf 8b a4 60 41 80 	movabs $0x804160a48b,%rdi
  804160202e:	00 00 00 
  8041602031:	b8 00 00 00 00       	mov    $0x0,%eax
  8041602036:	49 b8 e3 03 60 41 80 	movabs $0x80416003e3,%r8
  804160203d:	00 00 00 
  8041602040:	41 ff d0             	call   *%r8

    /* Read abbreviation code */
    uint64_t abbrev_code = 0;
    entry += dwarf_read_uleb128(entry, &abbrev_code);
    assert(abbrev_code);
  8041602043:	48 b9 98 a4 60 41 80 	movabs $0x804160a498,%rcx
  804160204a:	00 00 00 
  804160204d:	48 ba 76 a4 60 41 80 	movabs $0x804160a476,%rdx
  8041602054:	00 00 00 
  8041602057:	be 6d 01 00 00       	mov    $0x16d,%esi
  804160205c:	48 bf 8b a4 60 41 80 	movabs $0x804160a48b,%rdi
  8041602063:	00 00 00 
  8041602066:	b8 00 00 00 00       	mov    $0x0,%eax
  804160206b:	49 b8 e3 03 60 41 80 	movabs $0x80416003e3,%r8
  8041602072:	00 00 00 
  8041602075:	41 ff d0             	call   *%r8

    /* Read abbreviations table */
    const uint8_t *abbrev_entry = addrs->abbrev_begin + abbrev_offset;
    uint64_t table_abbrev_code = 0;
    abbrev_entry += dwarf_read_uleb128(abbrev_entry, &table_abbrev_code);
    assert(table_abbrev_code == abbrev_code);
  8041602078:	48 b9 f0 a5 60 41 80 	movabs $0x804160a5f0,%rcx
  804160207f:	00 00 00 
  8041602082:	48 ba 76 a4 60 41 80 	movabs $0x804160a476,%rdx
  8041602089:	00 00 00 
  804160208c:	be 73 01 00 00       	mov    $0x173,%esi
  8041602091:	48 bf 8b a4 60 41 80 	movabs $0x804160a48b,%rdi
  8041602098:	00 00 00 
  804160209b:	b8 00 00 00 00       	mov    $0x0,%eax
  80416020a0:	49 b8 e3 03 60 41 80 	movabs $0x80416003e3,%r8
  80416020a7:	00 00 00 
  80416020aa:	41 ff d0             	call   *%r8
    uint64_t tag = 0;
    abbrev_entry += dwarf_read_uleb128(abbrev_entry, &tag);
    assert(tag == DW_TAG_compile_unit);
  80416020ad:	48 b9 a4 a4 60 41 80 	movabs $0x804160a4a4,%rcx
  80416020b4:	00 00 00 
  80416020b7:	48 ba 76 a4 60 41 80 	movabs $0x804160a476,%rdx
  80416020be:	00 00 00 
  80416020c1:	be 76 01 00 00       	mov    $0x176,%esi
  80416020c6:	48 bf 8b a4 60 41 80 	movabs $0x804160a48b,%rdi
  80416020cd:	00 00 00 
  80416020d0:	b8 00 00 00 00       	mov    $0x0,%eax
  80416020d5:	49 b8 e3 03 60 41 80 	movabs $0x80416003e3,%r8
  80416020dc:	00 00 00 
  80416020df:	41 ff d0             	call   *%r8
    uint64_t name = 0, form = 0;
    do {
        abbrev_entry += dwarf_read_uleb128(abbrev_entry, &name);
        abbrev_entry += dwarf_read_uleb128(abbrev_entry, &form);
        if (name == DW_AT_name) {
            if (form == DW_FORM_strp) {
  80416020e2:	49 83 fc 0e          	cmp    $0xe,%r12
  80416020e6:	0f 84 1a 01 00 00    	je     8041602206 <file_name_by_info+0x2ed>
                uint64_t offset = 0;
                entry += dwarf_read_abbrev_entry(entry, form, &offset, sizeof(uint64_t), address_size);
                if (buf) put_unaligned((const uint8_t *)addrs->str_begin + offset, buf);
            } else {
                entry += dwarf_read_abbrev_entry(entry, form, buf, sizeof(char *), address_size);
  80416020ec:	41 b8 08 00 00 00    	mov    $0x8,%r8d
  80416020f2:	b9 08 00 00 00       	mov    $0x8,%ecx
  80416020f7:	48 8b 55 b8          	mov    -0x48(%rbp),%rdx
  80416020fb:	44 89 e6             	mov    %r12d,%esi
  80416020fe:	4c 89 f7             	mov    %r14,%rdi
  8041602101:	41 ff d7             	call   *%r15
  8041602104:	48 98                	cltq   
  8041602106:	49 01 c6             	add    %rax,%r14
    uint64_t result = 0;
  8041602109:	48 89 da             	mov    %rbx,%rdx
    size_t shift = 0, count = 0;
  804160210c:	b8 00 00 00 00       	mov    $0x0,%eax
  8041602111:	b9 00 00 00 00       	mov    $0x0,%ecx
    uint64_t result = 0;
  8041602116:	41 bd 00 00 00 00    	mov    $0x0,%r13d
        byte = *addr++;
  804160211c:	48 83 c2 01          	add    $0x1,%rdx
  8041602120:	0f b6 7a ff          	movzbl -0x1(%rdx),%edi
        result |= (byte & 0x7FULL) << shift;
  8041602124:	48 89 fe             	mov    %rdi,%rsi
  8041602127:	83 e6 7f             	and    $0x7f,%esi
  804160212a:	48 d3 e6             	shl    %cl,%rsi
  804160212d:	49 09 f5             	or     %rsi,%r13
        shift += 7;
  8041602130:	48 83 c1 07          	add    $0x7,%rcx
        count++;
  8041602134:	48 89 c6             	mov    %rax,%rsi
  8041602137:	48 83 c0 01          	add    $0x1,%rax
    } while (byte & 0x80 && shift < 64);
  804160213b:	40 84 ff             	test   %dil,%dil
  804160213e:	79 06                	jns    8041602146 <file_name_by_info+0x22d>
  8041602140:	48 83 f9 3f          	cmp    $0x3f,%rcx
  8041602144:	76 d6                	jbe    804160211c <file_name_by_info+0x203>
    while (byte & 0x80) {
  8041602146:	40 84 ff             	test   %dil,%dil
  8041602149:	79 12                	jns    804160215d <file_name_by_info+0x244>
        byte = *addr++;
  804160214b:	48 f7 d6             	not    %rsi
  804160214e:	48 01 f2             	add    %rsi,%rdx
  8041602151:	0f b6 0c 02          	movzbl (%rdx,%rax,1),%ecx
        count++;
  8041602155:	48 83 c0 01          	add    $0x1,%rax
    while (byte & 0x80) {
  8041602159:	84 c9                	test   %cl,%cl
  804160215b:	78 f4                	js     8041602151 <file_name_by_info+0x238>
        abbrev_entry += dwarf_read_uleb128(abbrev_entry, &name);
  804160215d:	48 01 d8             	add    %rbx,%rax
  8041602160:	48 89 c2             	mov    %rax,%rdx
    size_t shift = 0, count = 0;
  8041602163:	bb 00 00 00 00       	mov    $0x0,%ebx
  8041602168:	b9 00 00 00 00       	mov    $0x0,%ecx
    uint64_t result = 0;
  804160216d:	41 bc 00 00 00 00    	mov    $0x0,%r12d
        byte = *addr++;
  8041602173:	48 83 c2 01          	add    $0x1,%rdx
  8041602177:	0f b6 7a ff          	movzbl -0x1(%rdx),%edi
        result |= (byte & 0x7FULL) << shift;
  804160217b:	48 89 fe             	mov    %rdi,%rsi
  804160217e:	83 e6 7f             	and    $0x7f,%esi
  8041602181:	48 d3 e6             	shl    %cl,%rsi
  8041602184:	49 09 f4             	or     %rsi,%r12
        shift += 7;
  8041602187:	48 83 c1 07          	add    $0x7,%rcx
        count++;
  804160218b:	48 89 de             	mov    %rbx,%rsi
  804160218e:	48 83 c3 01          	add    $0x1,%rbx
    } while (byte & 0x80 && shift < 64);
  8041602192:	40 84 ff             	test   %dil,%dil
  8041602195:	79 06                	jns    804160219d <file_name_by_info+0x284>
  8041602197:	48 83 f9 3f          	cmp    $0x3f,%rcx
  804160219b:	76 d6                	jbe    8041602173 <file_name_by_info+0x25a>
    while (byte & 0x80) {
  804160219d:	40 84 ff             	test   %dil,%dil
  80416021a0:	79 12                	jns    80416021b4 <file_name_by_info+0x29b>
        byte = *addr++;
  80416021a2:	48 f7 d6             	not    %rsi
  80416021a5:	48 01 f2             	add    %rsi,%rdx
  80416021a8:	0f b6 0c 1a          	movzbl (%rdx,%rbx,1),%ecx
        count++;
  80416021ac:	48 83 c3 01          	add    $0x1,%rbx
    while (byte & 0x80) {
  80416021b0:	84 c9                	test   %cl,%cl
  80416021b2:	78 f4                	js     80416021a8 <file_name_by_info+0x28f>
        abbrev_entry += dwarf_read_uleb128(abbrev_entry, &form);
  80416021b4:	48 01 c3             	add    %rax,%rbx
        if (name == DW_AT_name) {
  80416021b7:	49 83 fd 03          	cmp    $0x3,%r13
  80416021bb:	0f 84 21 ff ff ff    	je     80416020e2 <file_name_by_info+0x1c9>
            }
        } else if (name == DW_AT_stmt_list) {
  80416021c1:	49 83 fd 10          	cmp    $0x10,%r13
  80416021c5:	0f 84 99 00 00 00    	je     8041602264 <file_name_by_info+0x34b>
            entry += dwarf_read_abbrev_entry(entry, form, line_off, sizeof(Dwarf_Off), address_size);
        } else {
            entry += dwarf_read_abbrev_entry(entry, form, NULL, 0, address_size);
  80416021cb:	41 b8 08 00 00 00    	mov    $0x8,%r8d
  80416021d1:	b9 00 00 00 00       	mov    $0x0,%ecx
  80416021d6:	ba 00 00 00 00       	mov    $0x0,%edx
  80416021db:	44 89 e6             	mov    %r12d,%esi
  80416021de:	4c 89 f7             	mov    %r14,%rdi
  80416021e1:	41 ff d7             	call   *%r15
  80416021e4:	48 98                	cltq   
  80416021e6:	49 01 c6             	add    %rax,%r14
        }
    } while (name || form);
  80416021e9:	4d 09 ec             	or     %r13,%r12
  80416021ec:	0f 85 17 ff ff ff    	jne    8041602109 <file_name_by_info+0x1f0>

    return 0;
  80416021f2:	b8 00 00 00 00       	mov    $0x0,%eax
}
  80416021f7:	48 83 c4 38          	add    $0x38,%rsp
  80416021fb:	5b                   	pop    %rbx
  80416021fc:	41 5c                	pop    %r12
  80416021fe:	41 5d                	pop    %r13
  8041602200:	41 5e                	pop    %r14
  8041602202:	41 5f                	pop    %r15
  8041602204:	5d                   	pop    %rbp
  8041602205:	c3                   	ret    
                uint64_t offset = 0;
  8041602206:	48 c7 45 c0 00 00 00 	movq   $0x0,-0x40(%rbp)
  804160220d:	00 
                entry += dwarf_read_abbrev_entry(entry, form, &offset, sizeof(uint64_t), address_size);
  804160220e:	41 b8 08 00 00 00    	mov    $0x8,%r8d
  8041602214:	b9 08 00 00 00       	mov    $0x8,%ecx
  8041602219:	48 8d 55 c0          	lea    -0x40(%rbp),%rdx
  804160221d:	be 0e 00 00 00       	mov    $0xe,%esi
  8041602222:	4c 89 f7             	mov    %r14,%rdi
  8041602225:	41 ff d7             	call   *%r15
  8041602228:	48 98                	cltq   
  804160222a:	49 01 c6             	add    %rax,%r14
                if (buf) put_unaligned((const uint8_t *)addrs->str_begin + offset, buf);
  804160222d:	48 8b 7d b8          	mov    -0x48(%rbp),%rdi
  8041602231:	48 85 ff             	test   %rdi,%rdi
  8041602234:	0f 84 cf fe ff ff    	je     8041602109 <file_name_by_info+0x1f0>
  804160223a:	48 8b 45 c0          	mov    -0x40(%rbp),%rax
  804160223e:	48 8b 55 a8          	mov    -0x58(%rbp),%rdx
  8041602242:	48 03 42 40          	add    0x40(%rdx),%rax
  8041602246:	48 89 45 c8          	mov    %rax,-0x38(%rbp)
  804160224a:	ba 08 00 00 00       	mov    $0x8,%edx
  804160224f:	48 8d 75 c8          	lea    -0x38(%rbp),%rsi
  8041602253:	48 b8 77 94 60 41 80 	movabs $0x8041609477,%rax
  804160225a:	00 00 00 
  804160225d:	ff d0                	call   *%rax
  804160225f:	e9 a5 fe ff ff       	jmp    8041602109 <file_name_by_info+0x1f0>
            entry += dwarf_read_abbrev_entry(entry, form, line_off, sizeof(Dwarf_Off), address_size);
  8041602264:	41 b8 08 00 00 00    	mov    $0x8,%r8d
  804160226a:	b9 08 00 00 00       	mov    $0x8,%ecx
  804160226f:	48 8b 55 b0          	mov    -0x50(%rbp),%rdx
  8041602273:	44 89 e6             	mov    %r12d,%esi
  8041602276:	4c 89 f7             	mov    %r14,%rdi
  8041602279:	41 ff d7             	call   *%r15
  804160227c:	48 98                	cltq   
  804160227e:	49 01 c6             	add    %rax,%r14
  8041602281:	e9 83 fe ff ff       	jmp    8041602109 <file_name_by_info+0x1f0>
    if (offset > addrs->info_end - addrs->info_begin) return -E_INVAL;
  8041602286:	b8 fd ff ff ff       	mov    $0xfffffffd,%eax
  804160228b:	e9 67 ff ff ff       	jmp    80416021f7 <file_name_by_info+0x2de>
    uint64_t count = sizeof(uint32_t);
  8041602290:	b8 04 00 00 00       	mov    $0x4,%eax
    entry += count = dwarf_entry_len(entry, &len);
  8041602295:	48 01 c3             	add    %rax,%rbx
    Dwarf_Half version = get_unaligned(entry, Dwarf_Half);
  8041602298:	ba 02 00 00 00       	mov    $0x2,%edx
  804160229d:	48 89 de             	mov    %rbx,%rsi
  80416022a0:	48 8d 7d c8          	lea    -0x38(%rbp),%rdi
  80416022a4:	48 b8 77 94 60 41 80 	movabs $0x8041609477,%rax
  80416022ab:	00 00 00 
  80416022ae:	ff d0                	call   *%rax
    entry += sizeof(Dwarf_Half);
  80416022b0:	48 8d 73 02          	lea    0x2(%rbx),%rsi
    assert(version == 4 || version == 2);
  80416022b4:	0f b7 45 c8          	movzwl -0x38(%rbp),%eax
  80416022b8:	83 e8 02             	sub    $0x2,%eax
  80416022bb:	66 a9 fd ff          	test   $0xfffd,%ax
  80416022bf:	0f 85 14 fd ff ff    	jne    8041601fd9 <file_name_by_info+0xc0>
    Dwarf_Off abbrev_offset = get_unaligned(entry, uint32_t);
  80416022c5:	ba 04 00 00 00       	mov    $0x4,%edx
  80416022ca:	48 8d 7d c8          	lea    -0x38(%rbp),%rdi
  80416022ce:	49 bc 77 94 60 41 80 	movabs $0x8041609477,%r12
  80416022d5:	00 00 00 
  80416022d8:	41 ff d4             	call   *%r12
  80416022db:	44 8b 6d c8          	mov    -0x38(%rbp),%r13d
    entry += sizeof(uint32_t);
  80416022df:	48 8d 73 06          	lea    0x6(%rbx),%rsi
    Dwarf_Small address_size = get_unaligned(entry, Dwarf_Small);
  80416022e3:	ba 01 00 00 00       	mov    $0x1,%edx
  80416022e8:	48 8d 7d c8          	lea    -0x38(%rbp),%rdi
  80416022ec:	41 ff d4             	call   *%r12
    entry += sizeof(Dwarf_Small);
  80416022ef:	4c 8d 73 07          	lea    0x7(%rbx),%r14
    assert(address_size == sizeof(uintptr_t));
  80416022f3:	80 7d c8 08          	cmpb   $0x8,-0x38(%rbp)
  80416022f7:	0f 85 11 fd ff ff    	jne    804160200e <file_name_by_info+0xf5>
  80416022fd:	4c 89 f0             	mov    %r14,%rax
    size_t shift = 0, count = 0;
  8041602300:	b9 00 00 00 00       	mov    $0x0,%ecx
    uint64_t result = 0;
  8041602305:	be 00 00 00 00       	mov    $0x0,%esi
        byte = *addr++;
  804160230a:	48 83 c0 01          	add    $0x1,%rax
  804160230e:	0f b6 78 ff          	movzbl -0x1(%rax),%edi
        result |= (byte & 0x7FULL) << shift;
  8041602312:	48 89 fa             	mov    %rdi,%rdx
  8041602315:	83 e2 7f             	and    $0x7f,%edx
  8041602318:	48 d3 e2             	shl    %cl,%rdx
  804160231b:	48 09 d6             	or     %rdx,%rsi
        shift += 7;
  804160231e:	48 83 c1 07          	add    $0x7,%rcx
        count++;
  8041602322:	4c 8d 40 f9          	lea    -0x7(%rax),%r8
  8041602326:	4c 89 c2             	mov    %r8,%rdx
  8041602329:	48 29 da             	sub    %rbx,%rdx
    } while (byte & 0x80 && shift < 64);
  804160232c:	40 84 ff             	test   %dil,%dil
  804160232f:	79 06                	jns    8041602337 <file_name_by_info+0x41e>
  8041602331:	48 83 f9 3f          	cmp    $0x3f,%rcx
  8041602335:	76 d3                	jbe    804160230a <file_name_by_info+0x3f1>
    while (byte & 0x80) {
  8041602337:	40 84 ff             	test   %dil,%dil
  804160233a:	79 12                	jns    804160234e <file_name_by_info+0x435>
        byte = *addr++;
  804160233c:	4c 29 c3             	sub    %r8,%rbx
  804160233f:	48 01 d8             	add    %rbx,%rax
  8041602342:	0f b6 0c 10          	movzbl (%rax,%rdx,1),%ecx
        count++;
  8041602346:	48 83 c2 01          	add    $0x1,%rdx
    while (byte & 0x80) {
  804160234a:	84 c9                	test   %cl,%cl
  804160234c:	78 f4                	js     8041602342 <file_name_by_info+0x429>
    entry += dwarf_read_uleb128(entry, &abbrev_code);
  804160234e:	49 01 d6             	add    %rdx,%r14
    assert(abbrev_code);
  8041602351:	48 85 f6             	test   %rsi,%rsi
  8041602354:	0f 84 e9 fc ff ff    	je     8041602043 <file_name_by_info+0x12a>
    const uint8_t *abbrev_entry = addrs->abbrev_begin + abbrev_offset;
  804160235a:	48 8b 45 a8          	mov    -0x58(%rbp),%rax
  804160235e:	4d 89 e8             	mov    %r13,%r8
  8041602361:	4c 03 00             	add    (%rax),%r8
  8041602364:	4c 89 c2             	mov    %r8,%rdx
    size_t shift = 0, count = 0;
  8041602367:	b8 00 00 00 00       	mov    $0x0,%eax
  804160236c:	b9 00 00 00 00       	mov    $0x0,%ecx
    uint64_t result = 0;
  8041602371:	41 b9 00 00 00 00    	mov    $0x0,%r9d
        byte = *addr++;
  8041602377:	48 83 c2 01          	add    $0x1,%rdx
  804160237b:	44 0f b6 52 ff       	movzbl -0x1(%rdx),%r10d
        result |= (byte & 0x7FULL) << shift;
  8041602380:	4c 89 d7             	mov    %r10,%rdi
  8041602383:	83 e7 7f             	and    $0x7f,%edi
  8041602386:	48 d3 e7             	shl    %cl,%rdi
  8041602389:	49 09 f9             	or     %rdi,%r9
        shift += 7;
  804160238c:	48 83 c1 07          	add    $0x7,%rcx
        count++;
  8041602390:	48 89 c7             	mov    %rax,%rdi
  8041602393:	48 83 c0 01          	add    $0x1,%rax
    } while (byte & 0x80 && shift < 64);
  8041602397:	45 84 d2             	test   %r10b,%r10b
  804160239a:	79 06                	jns    80416023a2 <file_name_by_info+0x489>
  804160239c:	48 83 f9 3f          	cmp    $0x3f,%rcx
  80416023a0:	76 d5                	jbe    8041602377 <file_name_by_info+0x45e>
    while (byte & 0x80) {
  80416023a2:	45 84 d2             	test   %r10b,%r10b
  80416023a5:	79 12                	jns    80416023b9 <file_name_by_info+0x4a0>
        byte = *addr++;
  80416023a7:	48 f7 d7             	not    %rdi
  80416023aa:	48 01 fa             	add    %rdi,%rdx
  80416023ad:	0f b6 0c 02          	movzbl (%rdx,%rax,1),%ecx
        count++;
  80416023b1:	48 83 c0 01          	add    $0x1,%rax
    while (byte & 0x80) {
  80416023b5:	84 c9                	test   %cl,%cl
  80416023b7:	78 f4                	js     80416023ad <file_name_by_info+0x494>
    abbrev_entry += dwarf_read_uleb128(abbrev_entry, &table_abbrev_code);
  80416023b9:	49 01 c0             	add    %rax,%r8
    assert(table_abbrev_code == abbrev_code);
  80416023bc:	4c 39 ce             	cmp    %r9,%rsi
  80416023bf:	0f 85 b3 fc ff ff    	jne    8041602078 <file_name_by_info+0x15f>
  80416023c5:	4c 89 c2             	mov    %r8,%rdx
    size_t shift = 0, count = 0;
  80416023c8:	b8 00 00 00 00       	mov    $0x0,%eax
  80416023cd:	b9 00 00 00 00       	mov    $0x0,%ecx
    uint64_t result = 0;
  80416023d2:	41 b9 00 00 00 00    	mov    $0x0,%r9d
        byte = *addr++;
  80416023d8:	48 83 c2 01          	add    $0x1,%rdx
  80416023dc:	0f b6 7a ff          	movzbl -0x1(%rdx),%edi
        result |= (byte & 0x7FULL) << shift;
  80416023e0:	48 89 fe             	mov    %rdi,%rsi
  80416023e3:	83 e6 7f             	and    $0x7f,%esi
  80416023e6:	48 d3 e6             	shl    %cl,%rsi
  80416023e9:	49 09 f1             	or     %rsi,%r9
        shift += 7;
  80416023ec:	48 83 c1 07          	add    $0x7,%rcx
        count++;
  80416023f0:	48 89 c6             	mov    %rax,%rsi
  80416023f3:	48 83 c0 01          	add    $0x1,%rax
    } while (byte & 0x80 && shift < 64);
  80416023f7:	40 84 ff             	test   %dil,%dil
  80416023fa:	79 06                	jns    8041602402 <file_name_by_info+0x4e9>
  80416023fc:	48 83 f9 3f          	cmp    $0x3f,%rcx
  8041602400:	76 d6                	jbe    80416023d8 <file_name_by_info+0x4bf>
    while (byte & 0x80) {
  8041602402:	40 84 ff             	test   %dil,%dil
  8041602405:	79 12                	jns    8041602419 <file_name_by_info+0x500>
        byte = *addr++;
  8041602407:	48 f7 d6             	not    %rsi
  804160240a:	48 01 f2             	add    %rsi,%rdx
  804160240d:	0f b6 0c 02          	movzbl (%rdx,%rax,1),%ecx
        count++;
  8041602411:	48 83 c0 01          	add    $0x1,%rax
    while (byte & 0x80) {
  8041602415:	84 c9                	test   %cl,%cl
  8041602417:	78 f4                	js     804160240d <file_name_by_info+0x4f4>
    assert(tag == DW_TAG_compile_unit);
  8041602419:	49 83 f9 11          	cmp    $0x11,%r9
  804160241d:	0f 85 8a fc ff ff    	jne    80416020ad <file_name_by_info+0x194>
    abbrev_entry += sizeof(Dwarf_Small);
  8041602423:	49 8d 5c 00 01       	lea    0x1(%r8,%rax,1),%rbx
            entry += dwarf_read_abbrev_entry(entry, form, NULL, 0, address_size);
  8041602428:	49 bf c2 0e 60 41 80 	movabs $0x8041600ec2,%r15
  804160242f:	00 00 00 
  8041602432:	e9 d2 fc ff ff       	jmp    8041602109 <file_name_by_info+0x1f0>

0000008041602437 <function_by_info>:

int
function_by_info(const struct Dwarf_Addrs *addrs, uintptr_t p, Dwarf_Off cu_offset, char **buf, uintptr_t *offset) {
  8041602437:	f3 0f 1e fa          	endbr64 
  804160243b:	55                   	push   %rbp
  804160243c:	48 89 e5             	mov    %rsp,%rbp
  804160243f:	41 57                	push   %r15
  8041602441:	41 56                	push   %r14
  8041602443:	41 55                	push   %r13
  8041602445:	41 54                	push   %r12
  8041602447:	53                   	push   %rbx
  8041602448:	48 83 ec 68          	sub    $0x68,%rsp
  804160244c:	48 89 7d 98          	mov    %rdi,-0x68(%rbp)
  8041602450:	48 89 b5 78 ff ff ff 	mov    %rsi,-0x88(%rbp)
  8041602457:	48 89 4d 88          	mov    %rcx,-0x78(%rbp)
  804160245b:	4c 89 85 70 ff ff ff 	mov    %r8,-0x90(%rbp)
    uint64_t len = 0;
    uint32_t count;

    const void *entry = addrs->info_begin + cu_offset;
  8041602462:	48 03 57 20          	add    0x20(%rdi),%rdx
  8041602466:	49 89 d6             	mov    %rdx,%r14
    uint64_t initial_len = get_unaligned(addr, uint32_t);
  8041602469:	ba 04 00 00 00       	mov    $0x4,%edx
  804160246e:	4c 89 f6             	mov    %r14,%rsi
  8041602471:	48 8d 7d c8          	lea    -0x38(%rbp),%rdi
  8041602475:	48 b8 77 94 60 41 80 	movabs $0x8041609477,%rax
  804160247c:	00 00 00 
  804160247f:	ff d0                	call   *%rax
  8041602481:	8b 45 c8             	mov    -0x38(%rbp),%eax
    if (initial_len >= DW_EXT_LO && initial_len <= DW_EXT_HI) {
  8041602484:	48 ba 10 00 00 00 ff 	movabs $0xffffffff00000010,%rdx
  804160248b:	ff ff ff 
  804160248e:	48 01 c2             	add    %rax,%rdx
  8041602491:	48 83 fa 0f          	cmp    $0xf,%rdx
  8041602495:	0f 87 09 06 00 00    	ja     8041602aa4 <function_by_info+0x66d>
        if (initial_len == DW_EXT_DWARF64) {
  804160249b:	ba ff ff ff ff       	mov    $0xffffffff,%edx
  80416024a0:	48 39 d0             	cmp    %rdx,%rax
  80416024a3:	74 25                	je     80416024ca <function_by_info+0x93>
            cprintf("Unknown DWARF extension\n");
  80416024a5:	48 bf 40 a4 60 41 80 	movabs $0x804160a440,%rdi
  80416024ac:	00 00 00 
  80416024af:	b8 00 00 00 00       	mov    $0x0,%eax
  80416024b4:	48 ba b7 6f 60 41 80 	movabs $0x8041606fb7,%rdx
  80416024bb:	00 00 00 
  80416024be:	ff d2                	call   *%rdx
    entry += count = dwarf_entry_len(entry, &len);
    if (!count) return -E_BAD_DWARF;
  80416024c0:	b8 fa ff ff ff       	mov    $0xfffffffa,%eax
  80416024c5:	e9 cb 05 00 00       	jmp    8041602a95 <function_by_info+0x65e>
            *len = get_unaligned((uint64_t *)addr + sizeof(uint32_t), uint64_t);
  80416024ca:	49 8d 76 20          	lea    0x20(%r14),%rsi
  80416024ce:	ba 08 00 00 00       	mov    $0x8,%edx
  80416024d3:	48 8d 7d c8          	lea    -0x38(%rbp),%rdi
  80416024d7:	48 b8 77 94 60 41 80 	movabs $0x8041609477,%rax
  80416024de:	00 00 00 
  80416024e1:	ff d0                	call   *%rax
  80416024e3:	48 8b 45 c8          	mov    -0x38(%rbp),%rax
            count += sizeof(uint64_t);
  80416024e7:	ba 0c 00 00 00       	mov    $0xc,%edx
  80416024ec:	e9 b8 05 00 00       	jmp    8041602aa9 <function_by_info+0x672>
    const void *entry_end = entry + len;

    /* Parse compilation unit header */
    Dwarf_Half version = get_unaligned(entry, Dwarf_Half);
    entry += sizeof(Dwarf_Half);
    assert(version == 4 || version == 2);
  80416024f1:	48 b9 59 a4 60 41 80 	movabs $0x804160a459,%rcx
  80416024f8:	00 00 00 
  80416024fb:	48 ba 76 a4 60 41 80 	movabs $0x804160a476,%rdx
  8041602502:	00 00 00 
  8041602505:	be 9d 01 00 00       	mov    $0x19d,%esi
  804160250a:	48 bf 8b a4 60 41 80 	movabs $0x804160a48b,%rdi
  8041602511:	00 00 00 
  8041602514:	b8 00 00 00 00       	mov    $0x0,%eax
  8041602519:	49 b8 e3 03 60 41 80 	movabs $0x80416003e3,%r8
  8041602520:	00 00 00 
  8041602523:	41 ff d0             	call   *%r8
    Dwarf_Off abbrev_offset = get_unaligned(entry, uint32_t);
    entry += sizeof(uint32_t);
    Dwarf_Small address_size = get_unaligned(entry, Dwarf_Small);
    entry += sizeof(Dwarf_Small);
    assert(address_size == sizeof(uintptr_t));
  8041602526:	48 b9 c8 a5 60 41 80 	movabs $0x804160a5c8,%rcx
  804160252d:	00 00 00 
  8041602530:	48 ba 76 a4 60 41 80 	movabs $0x804160a476,%rdx
  8041602537:	00 00 00 
  804160253a:	be a2 01 00 00       	mov    $0x1a2,%esi
  804160253f:	48 bf 8b a4 60 41 80 	movabs $0x804160a48b,%rdi
  8041602546:	00 00 00 
  8041602549:	b8 00 00 00 00       	mov    $0x0,%eax
  804160254e:	49 b8 e3 03 60 41 80 	movabs $0x80416003e3,%r8
  8041602555:	00 00 00 
  8041602558:	41 ff d0             	call   *%r8
    while (byte & 0x80) {
  804160255b:	40 84 ff             	test   %dil,%dil
  804160255e:	79 12                	jns    8041602572 <function_by_info+0x13b>
        byte = *addr++;
  8041602560:	48 f7 d6             	not    %rsi
  8041602563:	48 01 f2             	add    %rsi,%rdx
  8041602566:	0f b6 0c 02          	movzbl (%rdx,%rax,1),%ecx
        count++;
  804160256a:	48 83 c0 01          	add    $0x1,%rax
    while (byte & 0x80) {
  804160256e:	84 c9                	test   %cl,%cl
  8041602570:	78 f4                	js     8041602566 <function_by_info+0x12f>
    uint64_t table_abbrev_code = 0;
    const uint8_t *abbrev_entry = addrs->abbrev_begin + abbrev_offset;

    while (entry < entry_end) {
        /* Read info abbreviation code */
        entry += dwarf_read_uleb128(entry, &abbrev_code);
  8041602572:	49 01 c6             	add    %rax,%r14
        if (!abbrev_code) continue;
  8041602575:	4d 85 c0             	test   %r8,%r8
  8041602578:	75 49                	jne    80416025c3 <function_by_info+0x18c>
    while (entry < entry_end) {
  804160257a:	4c 3b 75 80          	cmp    -0x80(%rbp),%r14
  804160257e:	0f 83 0c 05 00 00    	jae    8041602a90 <function_by_info+0x659>
  8041602584:	4c 89 f2             	mov    %r14,%rdx
    size_t shift = 0, count = 0;
  8041602587:	b8 00 00 00 00       	mov    $0x0,%eax
  804160258c:	b9 00 00 00 00       	mov    $0x0,%ecx
    uint64_t result = 0;
  8041602591:	41 b8 00 00 00 00    	mov    $0x0,%r8d
        byte = *addr++;
  8041602597:	48 83 c2 01          	add    $0x1,%rdx
  804160259b:	0f b6 7a ff          	movzbl -0x1(%rdx),%edi
        result |= (byte & 0x7FULL) << shift;
  804160259f:	48 89 fe             	mov    %rdi,%rsi
  80416025a2:	83 e6 7f             	and    $0x7f,%esi
  80416025a5:	48 d3 e6             	shl    %cl,%rsi
  80416025a8:	49 09 f0             	or     %rsi,%r8
        shift += 7;
  80416025ab:	48 83 c1 07          	add    $0x7,%rcx
        count++;
  80416025af:	48 89 c6             	mov    %rax,%rsi
  80416025b2:	48 83 c0 01          	add    $0x1,%rax
    } while (byte & 0x80 && shift < 64);
  80416025b6:	40 84 ff             	test   %dil,%dil
  80416025b9:	79 a0                	jns    804160255b <function_by_info+0x124>
  80416025bb:	48 83 f9 3f          	cmp    $0x3f,%rcx
  80416025bf:	76 d6                	jbe    8041602597 <function_by_info+0x160>
  80416025c1:	eb 98                	jmp    804160255b <function_by_info+0x124>
        const uint8_t *curr_abbrev_entry = abbrev_entry;
        uint64_t name = 0, form = 0, tag = 0;

        /* Find abbreviation in abbrev section */
        /* UNSAFE Needs to be replaced */
        while (curr_abbrev_entry < addrs->abbrev_end) {
  80416025c3:	48 8b 45 98          	mov    -0x68(%rbp),%rax
  80416025c7:	4c 8b 48 08          	mov    0x8(%rax),%r9
  80416025cb:	48 8b 45 90          	mov    -0x70(%rbp),%rax
  80416025cf:	4c 39 c8             	cmp    %r9,%rax
  80416025d2:	0f 82 d2 00 00 00    	jb     80416026aa <function_by_info+0x273>
        const uint8_t *curr_abbrev_entry = abbrev_entry;
  80416025d8:	48 8b 5d 90          	mov    -0x70(%rbp),%rbx
  80416025dc:	e9 10 04 00 00       	jmp    80416029f1 <function_by_info+0x5ba>
    while (byte & 0x80) {
  80416025e1:	45 84 e4             	test   %r12b,%r12b
  80416025e4:	79 12                	jns    80416025f8 <function_by_info+0x1c1>
        byte = *addr++;
  80416025e6:	49 f7 d3             	not    %r11
  80416025e9:	4c 01 de             	add    %r11,%rsi
  80416025ec:	0f b6 0c 06          	movzbl (%rsi,%rax,1),%ecx
        count++;
  80416025f0:	48 83 c0 01          	add    $0x1,%rax
    while (byte & 0x80) {
  80416025f4:	84 c9                	test   %cl,%cl
  80416025f6:	78 f4                	js     80416025ec <function_by_info+0x1b5>
            if (table_abbrev_code == abbrev_code) break;

            /* Skip attributes */
            do {
                curr_abbrev_entry += dwarf_read_uleb128(curr_abbrev_entry, &name);
                curr_abbrev_entry += dwarf_read_uleb128(curr_abbrev_entry, &form);
  80416025f8:	48 01 d0             	add    %rdx,%rax
            } while (name != 0 || form != 0);
  80416025fb:	4c 09 d3             	or     %r10,%rbx
  80416025fe:	0f 84 9d 00 00 00    	je     80416026a1 <function_by_info+0x26a>
    uint64_t result = 0;
  8041602604:	48 89 c6             	mov    %rax,%rsi
    size_t shift = 0, count = 0;
  8041602607:	ba 00 00 00 00       	mov    $0x0,%edx
  804160260c:	b9 00 00 00 00       	mov    $0x0,%ecx
    uint64_t result = 0;
  8041602611:	41 ba 00 00 00 00    	mov    $0x0,%r10d
        byte = *addr++;
  8041602617:	48 83 c6 01          	add    $0x1,%rsi
  804160261b:	0f b6 5e ff          	movzbl -0x1(%rsi),%ebx
        result |= (byte & 0x7FULL) << shift;
  804160261f:	49 89 db             	mov    %rbx,%r11
  8041602622:	41 83 e3 7f          	and    $0x7f,%r11d
  8041602626:	49 d3 e3             	shl    %cl,%r11
  8041602629:	4d 09 da             	or     %r11,%r10
        shift += 7;
  804160262c:	48 83 c1 07          	add    $0x7,%rcx
        count++;
  8041602630:	49 89 d3             	mov    %rdx,%r11
  8041602633:	48 83 c2 01          	add    $0x1,%rdx
    } while (byte & 0x80 && shift < 64);
  8041602637:	84 db                	test   %bl,%bl
  8041602639:	79 06                	jns    8041602641 <function_by_info+0x20a>
  804160263b:	48 83 f9 3f          	cmp    $0x3f,%rcx
  804160263f:	76 d6                	jbe    8041602617 <function_by_info+0x1e0>
    while (byte & 0x80) {
  8041602641:	84 db                	test   %bl,%bl
  8041602643:	79 12                	jns    8041602657 <function_by_info+0x220>
        byte = *addr++;
  8041602645:	49 f7 d3             	not    %r11
  8041602648:	4c 01 de             	add    %r11,%rsi
  804160264b:	0f b6 0c 16          	movzbl (%rsi,%rdx,1),%ecx
        count++;
  804160264f:	48 83 c2 01          	add    $0x1,%rdx
    while (byte & 0x80) {
  8041602653:	84 c9                	test   %cl,%cl
  8041602655:	78 f4                	js     804160264b <function_by_info+0x214>
                curr_abbrev_entry += dwarf_read_uleb128(curr_abbrev_entry, &name);
  8041602657:	48 01 c2             	add    %rax,%rdx
  804160265a:	48 89 d6             	mov    %rdx,%rsi
    size_t shift = 0, count = 0;
  804160265d:	b8 00 00 00 00       	mov    $0x0,%eax
  8041602662:	b9 00 00 00 00       	mov    $0x0,%ecx
    uint64_t result = 0;
  8041602667:	bb 00 00 00 00       	mov    $0x0,%ebx
        byte = *addr++;
  804160266c:	48 83 c6 01          	add    $0x1,%rsi
  8041602670:	44 0f b6 66 ff       	movzbl -0x1(%rsi),%r12d
        result |= (byte & 0x7FULL) << shift;
  8041602675:	4d 89 e3             	mov    %r12,%r11
  8041602678:	41 83 e3 7f          	and    $0x7f,%r11d
  804160267c:	49 d3 e3             	shl    %cl,%r11
  804160267f:	4c 09 db             	or     %r11,%rbx
        shift += 7;
  8041602682:	48 83 c1 07          	add    $0x7,%rcx
        count++;
  8041602686:	49 89 c3             	mov    %rax,%r11
  8041602689:	48 83 c0 01          	add    $0x1,%rax
    } while (byte & 0x80 && shift < 64);
  804160268d:	45 84 e4             	test   %r12b,%r12b
  8041602690:	0f 89 4b ff ff ff    	jns    80416025e1 <function_by_info+0x1aa>
  8041602696:	48 83 f9 3f          	cmp    $0x3f,%rcx
  804160269a:	76 d0                	jbe    804160266c <function_by_info+0x235>
  804160269c:	e9 40 ff ff ff       	jmp    80416025e1 <function_by_info+0x1aa>
        while (curr_abbrev_entry < addrs->abbrev_end) {
  80416026a1:	4c 39 c8             	cmp    %r9,%rax
  80416026a4:	0f 83 b8 00 00 00    	jae    8041602762 <function_by_info+0x32b>
        const uint8_t *curr_abbrev_entry = abbrev_entry;
  80416026aa:	48 89 c6             	mov    %rax,%rsi
    size_t shift = 0, count = 0;
  80416026ad:	ba 00 00 00 00       	mov    $0x0,%edx
  80416026b2:	b9 00 00 00 00       	mov    $0x0,%ecx
    uint64_t result = 0;
  80416026b7:	41 ba 00 00 00 00    	mov    $0x0,%r10d
        byte = *addr++;
  80416026bd:	48 83 c6 01          	add    $0x1,%rsi
  80416026c1:	44 0f b6 5e ff       	movzbl -0x1(%rsi),%r11d
        result |= (byte & 0x7FULL) << shift;
  80416026c6:	4c 89 df             	mov    %r11,%rdi
  80416026c9:	83 e7 7f             	and    $0x7f,%edi
  80416026cc:	48 d3 e7             	shl    %cl,%rdi
  80416026cf:	49 09 fa             	or     %rdi,%r10
        shift += 7;
  80416026d2:	48 83 c1 07          	add    $0x7,%rcx
        count++;
  80416026d6:	48 89 d7             	mov    %rdx,%rdi
  80416026d9:	48 83 c2 01          	add    $0x1,%rdx
    } while (byte & 0x80 && shift < 64);
  80416026dd:	45 84 db             	test   %r11b,%r11b
  80416026e0:	79 06                	jns    80416026e8 <function_by_info+0x2b1>
  80416026e2:	48 83 f9 3f          	cmp    $0x3f,%rcx
  80416026e6:	76 d5                	jbe    80416026bd <function_by_info+0x286>
    while (byte & 0x80) {
  80416026e8:	45 84 db             	test   %r11b,%r11b
  80416026eb:	79 12                	jns    80416026ff <function_by_info+0x2c8>
        byte = *addr++;
  80416026ed:	48 f7 d7             	not    %rdi
  80416026f0:	48 01 fe             	add    %rdi,%rsi
  80416026f3:	0f b6 0c 16          	movzbl (%rsi,%rdx,1),%ecx
        count++;
  80416026f7:	48 83 c2 01          	add    $0x1,%rdx
    while (byte & 0x80) {
  80416026fb:	84 c9                	test   %cl,%cl
  80416026fd:	78 f4                	js     80416026f3 <function_by_info+0x2bc>
            curr_abbrev_entry += dwarf_read_uleb128(curr_abbrev_entry, &table_abbrev_code);
  80416026ff:	48 01 c2             	add    %rax,%rdx
  8041602702:	48 89 d6             	mov    %rdx,%rsi
    size_t shift = 0, count = 0;
  8041602705:	b8 00 00 00 00       	mov    $0x0,%eax
  804160270a:	b9 00 00 00 00       	mov    $0x0,%ecx
    uint64_t result = 0;
  804160270f:	bf 00 00 00 00       	mov    $0x0,%edi
        byte = *addr++;
  8041602714:	48 83 c6 01          	add    $0x1,%rsi
  8041602718:	0f b6 5e ff          	movzbl -0x1(%rsi),%ebx
        result |= (byte & 0x7FULL) << shift;
  804160271c:	49 89 db             	mov    %rbx,%r11
  804160271f:	41 83 e3 7f          	and    $0x7f,%r11d
  8041602723:	49 d3 e3             	shl    %cl,%r11
  8041602726:	4c 09 df             	or     %r11,%rdi
        shift += 7;
  8041602729:	48 83 c1 07          	add    $0x7,%rcx
        count++;
  804160272d:	49 89 c3             	mov    %rax,%r11
  8041602730:	48 83 c0 01          	add    $0x1,%rax
    } while (byte & 0x80 && shift < 64);
  8041602734:	84 db                	test   %bl,%bl
  8041602736:	79 06                	jns    804160273e <function_by_info+0x307>
  8041602738:	48 83 f9 3f          	cmp    $0x3f,%rcx
  804160273c:	76 d6                	jbe    8041602714 <function_by_info+0x2dd>
    while (byte & 0x80) {
  804160273e:	84 db                	test   %bl,%bl
  8041602740:	79 12                	jns    8041602754 <function_by_info+0x31d>
        byte = *addr++;
  8041602742:	49 f7 d3             	not    %r11
  8041602745:	4c 01 de             	add    %r11,%rsi
  8041602748:	0f b6 0c 06          	movzbl (%rsi,%rax,1),%ecx
        count++;
  804160274c:	48 83 c0 01          	add    $0x1,%rax
    while (byte & 0x80) {
  8041602750:	84 c9                	test   %cl,%cl
  8041602752:	78 f4                	js     8041602748 <function_by_info+0x311>
            curr_abbrev_entry += sizeof(Dwarf_Small);
  8041602754:	48 8d 44 02 01       	lea    0x1(%rdx,%rax,1),%rax
            if (table_abbrev_code == abbrev_code) break;
  8041602759:	4d 39 d0             	cmp    %r10,%r8
  804160275c:	0f 85 a2 fe ff ff    	jne    8041602604 <function_by_info+0x1cd>
        }
        /* Parse subprogram DIE */
        if (tag == DW_TAG_subprogram) {
  8041602762:	48 89 c3             	mov    %rax,%rbx
  8041602765:	48 83 ff 2e          	cmp    $0x2e,%rdi
  8041602769:	0f 85 82 02 00 00    	jne    80416029f1 <function_by_info+0x5ba>
            uintptr_t low_pc = 0, high_pc = 0;
  804160276f:	48 c7 45 b0 00 00 00 	movq   $0x0,-0x50(%rbp)
  8041602776:	00 
  8041602777:	48 c7 45 b8 00 00 00 	movq   $0x0,-0x48(%rbp)
  804160277e:	00 
            const uint8_t *fn_name_entry = 0;
            uint64_t name_form = 0;
  804160277f:	48 c7 45 a0 00 00 00 	movq   $0x0,-0x60(%rbp)
  8041602786:	00 
            const uint8_t *fn_name_entry = 0;
  8041602787:	48 c7 45 a8 00 00 00 	movq   $0x0,-0x58(%rbp)
  804160278e:	00 
  804160278f:	eb 72                	jmp    8041602803 <function_by_info+0x3cc>
  8041602791:	45 84 c0             	test   %r8b,%r8b
  8041602794:	79 12                	jns    80416027a8 <function_by_info+0x371>
        byte = *addr++;
  8041602796:	48 f7 d7             	not    %rdi
  8041602799:	48 01 fe             	add    %rdi,%rsi
  804160279c:	0f b6 0c 06          	movzbl (%rsi,%rax,1),%ecx
        count++;
  80416027a0:	48 83 c0 01          	add    $0x1,%rax
    while (byte & 0x80) {
  80416027a4:	84 c9                	test   %cl,%cl
  80416027a6:	78 f4                	js     804160279c <function_by_info+0x365>
            do {
                curr_abbrev_entry += dwarf_read_uleb128(curr_abbrev_entry, &name);
                curr_abbrev_entry += dwarf_read_uleb128(curr_abbrev_entry, &form);
  80416027a8:	48 8d 1c 02          	lea    (%rdx,%rax,1),%rbx
                if (name == DW_AT_low_pc) {
  80416027ac:	49 83 fc 11          	cmp    $0x11,%r12
  80416027b0:	0f 84 ec 00 00 00    	je     80416028a2 <function_by_info+0x46b>
                    entry += dwarf_read_abbrev_entry(entry, form, &low_pc, sizeof(low_pc), address_size);
                } else if (name == DW_AT_high_pc) {
  80416027b6:	49 83 fc 12          	cmp    $0x12,%r12
  80416027ba:	0f 84 04 01 00 00    	je     80416028c4 <function_by_info+0x48d>
        result |= (byte & 0x7FULL) << shift;
  80416027c0:	49 83 fc 03          	cmp    $0x3,%r12
  80416027c4:	48 8b 45 a0          	mov    -0x60(%rbp),%rax
  80416027c8:	49 0f 44 c5          	cmove  %r13,%rax
  80416027cc:	48 89 45 a0          	mov    %rax,-0x60(%rbp)
  80416027d0:	48 8b 45 a8          	mov    -0x58(%rbp),%rax
  80416027d4:	49 0f 44 c6          	cmove  %r14,%rax
  80416027d8:	48 89 45 a8          	mov    %rax,-0x58(%rbp)
                } else {
                    if (name == DW_AT_name) {
                        fn_name_entry = entry;
                        name_form = form;
                    }
                    entry += dwarf_read_abbrev_entry(entry, form, NULL, 0, address_size);
  80416027dc:	41 b8 08 00 00 00    	mov    $0x8,%r8d
  80416027e2:	b9 00 00 00 00       	mov    $0x0,%ecx
  80416027e7:	ba 00 00 00 00       	mov    $0x0,%edx
  80416027ec:	44 89 ee             	mov    %r13d,%esi
  80416027ef:	4c 89 f7             	mov    %r14,%rdi
  80416027f2:	41 ff d7             	call   *%r15
  80416027f5:	48 98                	cltq   
  80416027f7:	49 01 c6             	add    %rax,%r14
                }
            } while (name || form);
  80416027fa:	4d 09 e5             	or     %r12,%r13
  80416027fd:	0f 84 f5 00 00 00    	je     80416028f8 <function_by_info+0x4c1>
            const uint8_t *fn_name_entry = 0;
  8041602803:	48 89 da             	mov    %rbx,%rdx
    size_t shift = 0, count = 0;
  8041602806:	b8 00 00 00 00       	mov    $0x0,%eax
  804160280b:	b9 00 00 00 00       	mov    $0x0,%ecx
    uint64_t result = 0;
  8041602810:	41 bc 00 00 00 00    	mov    $0x0,%r12d
        byte = *addr++;
  8041602816:	48 83 c2 01          	add    $0x1,%rdx
  804160281a:	0f b6 7a ff          	movzbl -0x1(%rdx),%edi
        result |= (byte & 0x7FULL) << shift;
  804160281e:	48 89 fe             	mov    %rdi,%rsi
  8041602821:	83 e6 7f             	and    $0x7f,%esi
  8041602824:	48 d3 e6             	shl    %cl,%rsi
  8041602827:	49 09 f4             	or     %rsi,%r12
        shift += 7;
  804160282a:	48 83 c1 07          	add    $0x7,%rcx
        count++;
  804160282e:	48 89 c6             	mov    %rax,%rsi
  8041602831:	48 83 c0 01          	add    $0x1,%rax
    } while (byte & 0x80 && shift < 64);
  8041602835:	40 84 ff             	test   %dil,%dil
  8041602838:	79 06                	jns    8041602840 <function_by_info+0x409>
  804160283a:	48 83 f9 3f          	cmp    $0x3f,%rcx
  804160283e:	76 d6                	jbe    8041602816 <function_by_info+0x3df>
    while (byte & 0x80) {
  8041602840:	40 84 ff             	test   %dil,%dil
  8041602843:	79 12                	jns    8041602857 <function_by_info+0x420>
        byte = *addr++;
  8041602845:	48 f7 d6             	not    %rsi
  8041602848:	48 01 f2             	add    %rsi,%rdx
  804160284b:	0f b6 0c 02          	movzbl (%rdx,%rax,1),%ecx
        count++;
  804160284f:	48 83 c0 01          	add    $0x1,%rax
    while (byte & 0x80) {
  8041602853:	84 c9                	test   %cl,%cl
  8041602855:	78 f4                	js     804160284b <function_by_info+0x414>
                curr_abbrev_entry += dwarf_read_uleb128(curr_abbrev_entry, &name);
  8041602857:	48 8d 14 03          	lea    (%rbx,%rax,1),%rdx
  804160285b:	48 89 d6             	mov    %rdx,%rsi
    size_t shift = 0, count = 0;
  804160285e:	b8 00 00 00 00       	mov    $0x0,%eax
  8041602863:	b9 00 00 00 00       	mov    $0x0,%ecx
    uint64_t result = 0;
  8041602868:	41 bd 00 00 00 00    	mov    $0x0,%r13d
        byte = *addr++;
  804160286e:	48 83 c6 01          	add    $0x1,%rsi
  8041602872:	44 0f b6 46 ff       	movzbl -0x1(%rsi),%r8d
        result |= (byte & 0x7FULL) << shift;
  8041602877:	4c 89 c7             	mov    %r8,%rdi
  804160287a:	83 e7 7f             	and    $0x7f,%edi
  804160287d:	48 d3 e7             	shl    %cl,%rdi
  8041602880:	49 09 fd             	or     %rdi,%r13
        shift += 7;
  8041602883:	48 83 c1 07          	add    $0x7,%rcx
        count++;
  8041602887:	48 89 c7             	mov    %rax,%rdi
  804160288a:	48 83 c0 01          	add    $0x1,%rax
    } while (byte & 0x80 && shift < 64);
  804160288e:	45 84 c0             	test   %r8b,%r8b
  8041602891:	0f 89 fa fe ff ff    	jns    8041602791 <function_by_info+0x35a>
  8041602897:	48 83 f9 3f          	cmp    $0x3f,%rcx
  804160289b:	76 d1                	jbe    804160286e <function_by_info+0x437>
  804160289d:	e9 ef fe ff ff       	jmp    8041602791 <function_by_info+0x35a>
                    entry += dwarf_read_abbrev_entry(entry, form, &low_pc, sizeof(low_pc), address_size);
  80416028a2:	41 b8 08 00 00 00    	mov    $0x8,%r8d
  80416028a8:	b9 08 00 00 00       	mov    $0x8,%ecx
  80416028ad:	48 8d 55 b0          	lea    -0x50(%rbp),%rdx
  80416028b1:	44 89 ee             	mov    %r13d,%esi
  80416028b4:	4c 89 f7             	mov    %r14,%rdi
  80416028b7:	41 ff d7             	call   *%r15
  80416028ba:	48 98                	cltq   
  80416028bc:	49 01 c6             	add    %rax,%r14
  80416028bf:	e9 3f ff ff ff       	jmp    8041602803 <function_by_info+0x3cc>
                    entry += dwarf_read_abbrev_entry(entry, form, &high_pc, sizeof(high_pc), address_size);
  80416028c4:	41 b8 08 00 00 00    	mov    $0x8,%r8d
  80416028ca:	b9 08 00 00 00       	mov    $0x8,%ecx
  80416028cf:	48 8d 55 b8          	lea    -0x48(%rbp),%rdx
  80416028d3:	44 89 ee             	mov    %r13d,%esi
  80416028d6:	4c 89 f7             	mov    %r14,%rdi
  80416028d9:	41 ff d7             	call   *%r15
  80416028dc:	48 98                	cltq   
  80416028de:	49 01 c6             	add    %rax,%r14
                    if (form != DW_FORM_addr) high_pc += low_pc;
  80416028e1:	49 83 fd 01          	cmp    $0x1,%r13
  80416028e5:	0f 84 18 ff ff ff    	je     8041602803 <function_by_info+0x3cc>
  80416028eb:	48 8b 45 b0          	mov    -0x50(%rbp),%rax
  80416028ef:	48 01 45 b8          	add    %rax,-0x48(%rbp)
  80416028f3:	e9 0b ff ff ff       	jmp    8041602803 <function_by_info+0x3cc>

            /* Load info and finish if address is inside of the function */
            if (p >= low_pc && p <= high_pc) {
  80416028f8:	48 8b 45 b0          	mov    -0x50(%rbp),%rax
  80416028fc:	48 8b bd 78 ff ff ff 	mov    -0x88(%rbp),%rdi
  8041602903:	48 39 f8             	cmp    %rdi,%rax
  8041602906:	0f 87 6e fc ff ff    	ja     804160257a <function_by_info+0x143>
  804160290c:	48 39 7d b8          	cmp    %rdi,-0x48(%rbp)
  8041602910:	0f 82 64 fc ff ff    	jb     804160257a <function_by_info+0x143>
                *offset = low_pc;
  8041602916:	48 8b bd 70 ff ff ff 	mov    -0x90(%rbp),%rdi
  804160291d:	48 89 07             	mov    %rax,(%rdi)
                if (name_form == DW_FORM_strp) {
  8041602920:	48 83 7d a0 0e       	cmpq   $0xe,-0x60(%rbp)
  8041602925:	74 2c                	je     8041602953 <function_by_info+0x51c>
                    uintptr_t str_offset = 0;
                    entry += dwarf_read_abbrev_entry(fn_name_entry, name_form, &str_offset, sizeof(uintptr_t), address_size);
                    (void)entry;
                    if (buf) put_unaligned((const uint8_t *)addrs->str_begin + str_offset, buf);
                } else {
                    entry += dwarf_read_abbrev_entry(fn_name_entry, name_form, buf, sizeof(uint8_t *), address_size);
  8041602927:	41 b8 08 00 00 00    	mov    $0x8,%r8d
  804160292d:	b9 08 00 00 00       	mov    $0x8,%ecx
  8041602932:	48 8b 55 88          	mov    -0x78(%rbp),%rdx
  8041602936:	8b 75 a0             	mov    -0x60(%rbp),%esi
  8041602939:	48 8b 7d a8          	mov    -0x58(%rbp),%rdi
  804160293d:	48 b8 c2 0e 60 41 80 	movabs $0x8041600ec2,%rax
  8041602944:	00 00 00 
  8041602947:	ff d0                	call   *%rax
                    (void)entry;
                }
                return 0;
  8041602949:	b8 00 00 00 00       	mov    $0x0,%eax
  804160294e:	e9 42 01 00 00       	jmp    8041602a95 <function_by_info+0x65e>
                    uintptr_t str_offset = 0;
  8041602953:	48 c7 45 c0 00 00 00 	movq   $0x0,-0x40(%rbp)
  804160295a:	00 
                    entry += dwarf_read_abbrev_entry(fn_name_entry, name_form, &str_offset, sizeof(uintptr_t), address_size);
  804160295b:	41 b8 08 00 00 00    	mov    $0x8,%r8d
  8041602961:	b9 08 00 00 00       	mov    $0x8,%ecx
  8041602966:	48 8d 55 c0          	lea    -0x40(%rbp),%rdx
  804160296a:	be 0e 00 00 00       	mov    $0xe,%esi
  804160296f:	48 8b 7d a8          	mov    -0x58(%rbp),%rdi
  8041602973:	48 b8 c2 0e 60 41 80 	movabs $0x8041600ec2,%rax
  804160297a:	00 00 00 
  804160297d:	ff d0                	call   *%rax
                    if (buf) put_unaligned((const uint8_t *)addrs->str_begin + str_offset, buf);
  804160297f:	48 8b 7d 88          	mov    -0x78(%rbp),%rdi
  8041602983:	48 85 ff             	test   %rdi,%rdi
  8041602986:	74 c1                	je     8041602949 <function_by_info+0x512>
  8041602988:	48 8b 45 c0          	mov    -0x40(%rbp),%rax
  804160298c:	48 8b 5d 98          	mov    -0x68(%rbp),%rbx
  8041602990:	48 03 43 40          	add    0x40(%rbx),%rax
  8041602994:	48 89 45 c8          	mov    %rax,-0x38(%rbp)
  8041602998:	ba 08 00 00 00       	mov    $0x8,%edx
  804160299d:	48 8d 75 c8          	lea    -0x38(%rbp),%rsi
  80416029a1:	48 b8 77 94 60 41 80 	movabs $0x8041609477,%rax
  80416029a8:	00 00 00 
  80416029ab:	ff d0                	call   *%rax
  80416029ad:	eb 9a                	jmp    8041602949 <function_by_info+0x512>
    while (byte & 0x80) {
  80416029af:	45 84 c0             	test   %r8b,%r8b
  80416029b2:	79 12                	jns    80416029c6 <function_by_info+0x58f>
        byte = *addr++;
  80416029b4:	48 f7 d7             	not    %rdi
  80416029b7:	48 01 fe             	add    %rdi,%rsi
  80416029ba:	0f b6 0c 06          	movzbl (%rsi,%rax,1),%ecx
        count++;
  80416029be:	48 83 c0 01          	add    $0x1,%rax
    while (byte & 0x80) {
  80416029c2:	84 c9                	test   %cl,%cl
  80416029c4:	78 f4                	js     80416029ba <function_by_info+0x583>
            }
        } else {
            /* Skip if not a subprogram */
            do {
                curr_abbrev_entry += dwarf_read_uleb128(curr_abbrev_entry, &name);
                curr_abbrev_entry += dwarf_read_uleb128(curr_abbrev_entry, &form);
  80416029c6:	48 8d 1c 02          	lea    (%rdx,%rax,1),%rbx
                entry += dwarf_read_abbrev_entry(entry, form, NULL, 0, address_size);
  80416029ca:	41 b8 08 00 00 00    	mov    $0x8,%r8d
  80416029d0:	b9 00 00 00 00       	mov    $0x0,%ecx
  80416029d5:	ba 00 00 00 00       	mov    $0x0,%edx
  80416029da:	44 89 e6             	mov    %r12d,%esi
  80416029dd:	4c 89 f7             	mov    %r14,%rdi
  80416029e0:	41 ff d7             	call   *%r15
  80416029e3:	48 98                	cltq   
  80416029e5:	49 01 c6             	add    %rax,%r14
            } while (name || form);
  80416029e8:	4d 09 ec             	or     %r13,%r12
  80416029eb:	0f 84 89 fb ff ff    	je     804160257a <function_by_info+0x143>
        const uint8_t *curr_abbrev_entry = abbrev_entry;
  80416029f1:	48 89 da             	mov    %rbx,%rdx
    size_t shift = 0, count = 0;
  80416029f4:	b8 00 00 00 00       	mov    $0x0,%eax
  80416029f9:	b9 00 00 00 00       	mov    $0x0,%ecx
    uint64_t result = 0;
  80416029fe:	41 bd 00 00 00 00    	mov    $0x0,%r13d
        byte = *addr++;
  8041602a04:	48 83 c2 01          	add    $0x1,%rdx
  8041602a08:	0f b6 7a ff          	movzbl -0x1(%rdx),%edi
        result |= (byte & 0x7FULL) << shift;
  8041602a0c:	48 89 fe             	mov    %rdi,%rsi
  8041602a0f:	83 e6 7f             	and    $0x7f,%esi
  8041602a12:	48 d3 e6             	shl    %cl,%rsi
  8041602a15:	49 09 f5             	or     %rsi,%r13
        shift += 7;
  8041602a18:	48 83 c1 07          	add    $0x7,%rcx
        count++;
  8041602a1c:	48 89 c6             	mov    %rax,%rsi
  8041602a1f:	48 83 c0 01          	add    $0x1,%rax
    } while (byte & 0x80 && shift < 64);
  8041602a23:	40 84 ff             	test   %dil,%dil
  8041602a26:	79 06                	jns    8041602a2e <function_by_info+0x5f7>
  8041602a28:	48 83 f9 3f          	cmp    $0x3f,%rcx
  8041602a2c:	76 d6                	jbe    8041602a04 <function_by_info+0x5cd>
    while (byte & 0x80) {
  8041602a2e:	40 84 ff             	test   %dil,%dil
  8041602a31:	79 12                	jns    8041602a45 <function_by_info+0x60e>
        byte = *addr++;
  8041602a33:	48 f7 d6             	not    %rsi
  8041602a36:	48 01 f2             	add    %rsi,%rdx
  8041602a39:	0f b6 0c 02          	movzbl (%rdx,%rax,1),%ecx
        count++;
  8041602a3d:	48 83 c0 01          	add    $0x1,%rax
    while (byte & 0x80) {
  8041602a41:	84 c9                	test   %cl,%cl
  8041602a43:	78 f4                	js     8041602a39 <function_by_info+0x602>
                curr_abbrev_entry += dwarf_read_uleb128(curr_abbrev_entry, &name);
  8041602a45:	48 8d 14 03          	lea    (%rbx,%rax,1),%rdx
  8041602a49:	48 89 d6             	mov    %rdx,%rsi
    size_t shift = 0, count = 0;
  8041602a4c:	b8 00 00 00 00       	mov    $0x0,%eax
  8041602a51:	b9 00 00 00 00       	mov    $0x0,%ecx
    uint64_t result = 0;
  8041602a56:	41 bc 00 00 00 00    	mov    $0x0,%r12d
        byte = *addr++;
  8041602a5c:	48 83 c6 01          	add    $0x1,%rsi
  8041602a60:	44 0f b6 46 ff       	movzbl -0x1(%rsi),%r8d
        result |= (byte & 0x7FULL) << shift;
  8041602a65:	4c 89 c7             	mov    %r8,%rdi
  8041602a68:	83 e7 7f             	and    $0x7f,%edi
  8041602a6b:	48 d3 e7             	shl    %cl,%rdi
  8041602a6e:	49 09 fc             	or     %rdi,%r12
        shift += 7;
  8041602a71:	48 83 c1 07          	add    $0x7,%rcx
        count++;
  8041602a75:	48 89 c7             	mov    %rax,%rdi
  8041602a78:	48 83 c0 01          	add    $0x1,%rax
    } while (byte & 0x80 && shift < 64);
  8041602a7c:	45 84 c0             	test   %r8b,%r8b
  8041602a7f:	0f 89 2a ff ff ff    	jns    80416029af <function_by_info+0x578>
  8041602a85:	48 83 f9 3f          	cmp    $0x3f,%rcx
  8041602a89:	76 d1                	jbe    8041602a5c <function_by_info+0x625>
  8041602a8b:	e9 1f ff ff ff       	jmp    80416029af <function_by_info+0x578>
        }
    }
    return -E_NO_ENT;
  8041602a90:	b8 f6 ff ff ff       	mov    $0xfffffff6,%eax
}
  8041602a95:	48 83 c4 68          	add    $0x68,%rsp
  8041602a99:	5b                   	pop    %rbx
  8041602a9a:	41 5c                	pop    %r12
  8041602a9c:	41 5d                	pop    %r13
  8041602a9e:	41 5e                	pop    %r14
  8041602aa0:	41 5f                	pop    %r15
  8041602aa2:	5d                   	pop    %rbp
  8041602aa3:	c3                   	ret    
    uint64_t count = sizeof(uint32_t);
  8041602aa4:	ba 04 00 00 00       	mov    $0x4,%edx
    entry += count = dwarf_entry_len(entry, &len);
  8041602aa9:	49 01 d6             	add    %rdx,%r14
    const void *entry_end = entry + len;
  8041602aac:	4c 01 f0             	add    %r14,%rax
  8041602aaf:	48 89 45 80          	mov    %rax,-0x80(%rbp)
    Dwarf_Half version = get_unaligned(entry, Dwarf_Half);
  8041602ab3:	ba 02 00 00 00       	mov    $0x2,%edx
  8041602ab8:	4c 89 f6             	mov    %r14,%rsi
  8041602abb:	48 8d 7d c8          	lea    -0x38(%rbp),%rdi
  8041602abf:	48 b8 77 94 60 41 80 	movabs $0x8041609477,%rax
  8041602ac6:	00 00 00 
  8041602ac9:	ff d0                	call   *%rax
    entry += sizeof(Dwarf_Half);
  8041602acb:	49 8d 76 02          	lea    0x2(%r14),%rsi
    assert(version == 4 || version == 2);
  8041602acf:	0f b7 45 c8          	movzwl -0x38(%rbp),%eax
  8041602ad3:	83 e8 02             	sub    $0x2,%eax
  8041602ad6:	66 a9 fd ff          	test   $0xfffd,%ax
  8041602ada:	0f 85 11 fa ff ff    	jne    80416024f1 <function_by_info+0xba>
    Dwarf_Off abbrev_offset = get_unaligned(entry, uint32_t);
  8041602ae0:	ba 04 00 00 00       	mov    $0x4,%edx
  8041602ae5:	48 8d 7d c8          	lea    -0x38(%rbp),%rdi
  8041602ae9:	49 bc 77 94 60 41 80 	movabs $0x8041609477,%r12
  8041602af0:	00 00 00 
  8041602af3:	41 ff d4             	call   *%r12
  8041602af6:	8b 5d c8             	mov    -0x38(%rbp),%ebx
    entry += sizeof(uint32_t);
  8041602af9:	49 8d 76 06          	lea    0x6(%r14),%rsi
    Dwarf_Small address_size = get_unaligned(entry, Dwarf_Small);
  8041602afd:	ba 01 00 00 00       	mov    $0x1,%edx
  8041602b02:	48 8d 7d c8          	lea    -0x38(%rbp),%rdi
  8041602b06:	41 ff d4             	call   *%r12
    entry += sizeof(Dwarf_Small);
  8041602b09:	49 83 c6 07          	add    $0x7,%r14
    assert(address_size == sizeof(uintptr_t));
  8041602b0d:	80 7d c8 08          	cmpb   $0x8,-0x38(%rbp)
  8041602b11:	0f 85 0f fa ff ff    	jne    8041602526 <function_by_info+0xef>
    const uint8_t *abbrev_entry = addrs->abbrev_begin + abbrev_offset;
  8041602b17:	48 8b 45 98          	mov    -0x68(%rbp),%rax
  8041602b1b:	48 03 18             	add    (%rax),%rbx
  8041602b1e:	48 89 5d 90          	mov    %rbx,-0x70(%rbp)
                entry += dwarf_read_abbrev_entry(entry, form, NULL, 0, address_size);
  8041602b22:	49 bf c2 0e 60 41 80 	movabs $0x8041600ec2,%r15
  8041602b29:	00 00 00 
    while (entry < entry_end) {
  8041602b2c:	e9 49 fa ff ff       	jmp    804160257a <function_by_info+0x143>

0000008041602b31 <address_by_fname>:

int
address_by_fname(const struct Dwarf_Addrs *addrs, const char *fname, uintptr_t *offset) {
  8041602b31:	f3 0f 1e fa          	endbr64 
  8041602b35:	55                   	push   %rbp
  8041602b36:	48 89 e5             	mov    %rsp,%rbp
  8041602b39:	41 57                	push   %r15
  8041602b3b:	41 56                	push   %r14
  8041602b3d:	41 55                	push   %r13
  8041602b3f:	41 54                	push   %r12
  8041602b41:	53                   	push   %rbx
  8041602b42:	48 83 ec 48          	sub    $0x48,%rsp
  8041602b46:	48 89 fb             	mov    %rdi,%rbx
  8041602b49:	48 89 7d b0          	mov    %rdi,-0x50(%rbp)
  8041602b4d:	48 89 f7             	mov    %rsi,%rdi
  8041602b50:	48 89 75 a0          	mov    %rsi,-0x60(%rbp)
  8041602b54:	48 89 55 90          	mov    %rdx,-0x70(%rbp)
    const int flen = strlen(fname);
  8041602b58:	48 b8 ac 91 60 41 80 	movabs $0x80416091ac,%rax
  8041602b5f:	00 00 00 
  8041602b62:	ff d0                	call   *%rax
    if (!flen) return -E_INVAL;
  8041602b64:	85 c0                	test   %eax,%eax
  8041602b66:	0f 84 0e 06 00 00    	je     804160317a <address_by_fname+0x649>

    const uint8_t *pubnames_entry = addrs->pubnames_begin;
  8041602b6c:	4c 8b 73 50          	mov    0x50(%rbx),%r14
    uint32_t count = 0;
    uint64_t len = 0;
    Dwarf_Off cu_offset = 0, func_offset = 0;

    /* parse pubnames section */
    while (pubnames_entry < addrs->pubnames_end) {
  8041602b70:	4d 89 f7             	mov    %r14,%r15
  8041602b73:	48 8b 45 b0          	mov    -0x50(%rbp),%rax
  8041602b77:	4c 3b 78 58          	cmp    0x58(%rax),%r15
  8041602b7b:	0f 83 f0 05 00 00    	jae    8041603171 <address_by_fname+0x640>
    uint64_t initial_len = get_unaligned(addr, uint32_t);
  8041602b81:	ba 04 00 00 00       	mov    $0x4,%edx
  8041602b86:	4c 89 fe             	mov    %r15,%rsi
  8041602b89:	48 8d 7d c8          	lea    -0x38(%rbp),%rdi
  8041602b8d:	48 b8 77 94 60 41 80 	movabs $0x8041609477,%rax
  8041602b94:	00 00 00 
  8041602b97:	ff d0                	call   *%rax
  8041602b99:	8b 45 c8             	mov    -0x38(%rbp),%eax
    if (initial_len >= DW_EXT_LO && initial_len <= DW_EXT_HI) {
  8041602b9c:	48 ba 10 00 00 00 ff 	movabs $0xffffffff00000010,%rdx
  8041602ba3:	ff ff ff 
  8041602ba6:	48 01 c2             	add    %rax,%rdx
  8041602ba9:	48 83 fa 0f          	cmp    $0xf,%rdx
  8041602bad:	0f 87 b1 06 00 00    	ja     8041603264 <address_by_fname+0x733>
        if (initial_len == DW_EXT_DWARF64) {
  8041602bb3:	ba ff ff ff ff       	mov    $0xffffffff,%edx
  8041602bb8:	48 39 d0             	cmp    %rdx,%rax
  8041602bbb:	74 27                	je     8041602be4 <address_by_fname+0xb3>
            cprintf("Unknown DWARF extension\n");
  8041602bbd:	48 bf 40 a4 60 41 80 	movabs $0x804160a440,%rdi
  8041602bc4:	00 00 00 
  8041602bc7:	b8 00 00 00 00       	mov    $0x0,%eax
  8041602bcc:	48 ba b7 6f 60 41 80 	movabs $0x8041606fb7,%rdx
  8041602bd3:	00 00 00 
  8041602bd6:	ff d2                	call   *%rdx
        count = dwarf_entry_len(pubnames_entry, &len);
        if (!count) return -E_BAD_DWARF;
  8041602bd8:	c7 45 bc fa ff ff ff 	movl   $0xfffffffa,-0x44(%rbp)
  8041602bdf:	e9 7b 05 00 00       	jmp    804160315f <address_by_fname+0x62e>
            *len = get_unaligned((uint64_t *)addr + sizeof(uint32_t), uint64_t);
  8041602be4:	49 8d 77 20          	lea    0x20(%r15),%rsi
  8041602be8:	ba 08 00 00 00       	mov    $0x8,%edx
  8041602bed:	48 8d 7d c8          	lea    -0x38(%rbp),%rdi
  8041602bf1:	48 b8 77 94 60 41 80 	movabs $0x8041609477,%rax
  8041602bf8:	00 00 00 
  8041602bfb:	ff d0                	call   *%rax
  8041602bfd:	48 8b 45 c8          	mov    -0x38(%rbp),%rax
            count += sizeof(uint64_t);
  8041602c01:	bb 0c 00 00 00       	mov    $0xc,%ebx
  8041602c06:	e9 5e 06 00 00       	jmp    8041603269 <address_by_fname+0x738>
        pubnames_entry += count;

        const uint8_t *pubnames_entry_end = pubnames_entry + len;
        Dwarf_Half version = get_unaligned(pubnames_entry, Dwarf_Half);
        assert(version == 2);
  8041602c0b:	48 b9 69 a4 60 41 80 	movabs $0x804160a469,%rcx
  8041602c12:	00 00 00 
  8041602c15:	48 ba 76 a4 60 41 80 	movabs $0x804160a476,%rdx
  8041602c1c:	00 00 00 
  8041602c1f:	be 01 02 00 00       	mov    $0x201,%esi
  8041602c24:	48 bf 8b a4 60 41 80 	movabs $0x804160a48b,%rdi
  8041602c2b:	00 00 00 
  8041602c2e:	b8 00 00 00 00       	mov    $0x0,%eax
  8041602c33:	49 b8 e3 03 60 41 80 	movabs $0x80416003e3,%r8
  8041602c3a:	00 00 00 
  8041602c3d:	41 ff d0             	call   *%r8
            *len = get_unaligned((uint64_t *)addr + sizeof(uint32_t), uint64_t);
  8041602c40:	48 8d 73 26          	lea    0x26(%rbx),%rsi
  8041602c44:	ba 08 00 00 00       	mov    $0x8,%edx
  8041602c49:	48 8d 7d c8          	lea    -0x38(%rbp),%rdi
  8041602c4d:	4c 89 f0             	mov    %r14,%rax
  8041602c50:	ff d0                	call   *%rax
            count += sizeof(uint64_t);
  8041602c52:	b8 0c 00 00 00       	mov    $0xc,%eax
  8041602c57:	e9 b7 06 00 00       	jmp    8041603313 <address_by_fname+0x7e2>
            *len = get_unaligned((uint64_t *)addr + sizeof(uint32_t), uint64_t);
  8041602c5c:	49 8d 74 24 20       	lea    0x20(%r12),%rsi
  8041602c61:	ba 08 00 00 00       	mov    $0x8,%edx
  8041602c66:	48 8d 7d c8          	lea    -0x38(%rbp),%rdi
  8041602c6a:	48 b8 77 94 60 41 80 	movabs $0x8041609477,%rax
  8041602c71:	00 00 00 
  8041602c74:	ff d0                	call   *%rax
            count += sizeof(uint64_t);
  8041602c76:	b8 0c 00 00 00       	mov    $0xc,%eax
  8041602c7b:	e9 08 05 00 00       	jmp    8041603188 <address_by_fname+0x657>
                const uint8_t *func_entry = entry + func_offset;
                entry += count = dwarf_entry_len(entry, &len);
                if (!count) return -E_BAD_DWARF;

                Dwarf_Half version = get_unaligned(entry, Dwarf_Half);
                assert(version == 4 || version == 2);
  8041602c80:	48 b9 59 a4 60 41 80 	movabs $0x804160a459,%rcx
  8041602c87:	00 00 00 
  8041602c8a:	48 ba 76 a4 60 41 80 	movabs $0x804160a476,%rdx
  8041602c91:	00 00 00 
  8041602c94:	be 17 02 00 00       	mov    $0x217,%esi
  8041602c99:	48 bf 8b a4 60 41 80 	movabs $0x804160a48b,%rdi
  8041602ca0:	00 00 00 
  8041602ca3:	b8 00 00 00 00       	mov    $0x0,%eax
  8041602ca8:	49 b8 e3 03 60 41 80 	movabs $0x80416003e3,%r8
  8041602caf:	00 00 00 
  8041602cb2:	41 ff d0             	call   *%r8
                entry += sizeof(Dwarf_Half);
                Dwarf_Off abbrev_offset = get_unaligned(entry, uint32_t);
                entry += sizeof(uint32_t);
                const uint8_t *abbrev_entry = addrs->abbrev_begin + abbrev_offset;
                Dwarf_Small address_size = get_unaligned(entry, Dwarf_Small);
                assert(address_size == sizeof(uintptr_t));
  8041602cb5:	48 b9 c8 a5 60 41 80 	movabs $0x804160a5c8,%rcx
  8041602cbc:	00 00 00 
  8041602cbf:	48 ba 76 a4 60 41 80 	movabs $0x804160a476,%rdx
  8041602cc6:	00 00 00 
  8041602cc9:	be 1d 02 00 00       	mov    $0x21d,%esi
  8041602cce:	48 bf 8b a4 60 41 80 	movabs $0x804160a48b,%rdi
  8041602cd5:	00 00 00 
  8041602cd8:	b8 00 00 00 00       	mov    $0x0,%eax
  8041602cdd:	49 b8 e3 03 60 41 80 	movabs $0x80416003e3,%r8
  8041602ce4:	00 00 00 
  8041602ce7:	41 ff d0             	call   *%r8
    while (byte & 0x80) {
  8041602cea:	45 84 e4             	test   %r12b,%r12b
